(lp0
(dp1
VNo
p2
I1
sVBowlingPoints
p3
V240
p4
sVOverallPoints
p5
V547
p6
sVFieldingPoints
p7
V30
p8
sVBonusPoints
p9
V175
p10
sVSecondarySkill
p11
I4
sVTeamId
p12
I1188
sVSelectedPer
p13
V37.8
p14
sVGamedayPoints
p15
NsVTourId
p16
I350
sVName
p17
VMohammad Nabi
p18
sVAvailDesc
p19
V
p20
sVBattingPoints
p21
V84
p22
sVValue
p23
V9
p24
sVAvailStatus
p25
I1
sVTeamName
p26
VAfghanistan
p27
sVTeamCode
p28
VAFG
p29
sVSkillDesc
p30
VBatsman
p31
sVSecondarySkillDesc
p32
VAllrounder
p33
sVSkill
p34
I1
sVId
p35
I7797
sVIsActive
p36
I1
sa(dp37
g2
I2
sg3
V270
p38
sg5
V539
p39
sg7
V30
p40
sg9
V120
p41
sg11
I0
sg12
I2
sg13
V22.3
p42
sg15
Nsg16
I350
sg17
VShakib Al Hasan
p43
sg19
g20
sg21
V105
p44
sg23
V12
p45
sg25
I1
sg26
VBangladesh
p46
sg28
VBAN
p47
sg30
VAllrounder
p48
sg32
g20
sg34
I4
sg35
I3782
sg36
I1
sa(dp49
g2
I3
sg3
V0
p50
sg5
V463
p51
sg7
g50
sg9
V125
p52
sg11
I0
sg12
I2
sg13
V7.8
p53
sg15
Nsg16
I350
sg17
VTamim Iqbal
p54
sg19
g20
sg21
V257
p55
sg23
g24
sg25
I1
sg26
VBangladesh
p56
sg28
VBAN
p57
sg30
VBatsman
p58
sg32
g20
sg34
I1
sg35
I3903
sg36
I1
sa(dp59
g2
I4
sg3
g50
sg5
V402
p60
sg7
V50
p61
sg9
V75
p62
sg11
I1
sg12
I1188
sg13
V50
p63
sg15
Nsg16
I350
sg17
VMohammad Shahzad
p64
sg19
g20
sg21
V194
p65
sg23
g24
sg25
I1
sg26
VAfghanistan
p66
sg28
VAFG
p67
sg30
VWicketkeeper
p68
sg32
VBatsman
p69
sg34
I3
sg35
I9875
sg36
I1
sa(dp70
g2
I5
sg3
V240
p71
sg5
V391
p72
sg7
g50
sg9
V100
p73
sg11
I4
sg12
I5
sg13
V60.6
p74
sg15
V85
p75
sg16
I350
sg17
VMitchell Santner
p76
sg19
g20
sg21
V19
p77
sg23
V7
p78
sg25
I1
sg26
VNew Zealand
p79
sg28
VNZ
p80
sg30
VBowler
p81
sg32
VAllrounder
p82
sg34
I2
sg35
I57903
sg36
I1
sa(dp83
g2
I6
sg3
V120
p84
sg5
V318
p85
sg7
V10
p86
sg9
V80
p87
sg11
I4
sg12
I6
sg13
V34
p88
sg15
V104
p89
sg16
I350
sg17
VShahid Afridi
p90
sg19
g20
sg21
V76
p91
sg23
V12
p92
sg25
I1
sg26
VPakistan
p93
sg28
VPAK
p94
sg30
VBowler
p95
sg32
VAllrounder
p96
sg34
I2
sg35
I2688
sg36
I1
sa(dp97
g2
I7
sg3
V210
p98
sg5
V313
p99
sg7
g50
sg9
V60
p100
sg11
I0
sg12
I1188
sg13
V14.7
p101
sg15
Nsg16
I350
sg17
VRashid Khan
p102
sg19
g20
sg21
V11
p103
sg23
V5
p104
sg25
I1
sg26
VAfghanistan
p105
sg28
VAFG
p106
sg30
VBowler
p107
sg32
g20
sg34
I2
sg35
I65748
sg36
I1
sa(dp108
g2
I8
sg3
g50
sg5
V311
p109
sg7
V60
p110
sg9
V60
p111
sg11
I0
sg12
I5
sg13
V38.4
p112
sg15
V194
p113
sg16
I350
sg17
VMartin Guptill
p114
sg19
g20
sg21
V125
p115
sg23
V10
p116
sg25
I1
sg26
VNew Zealand
p117
sg28
VNZ
p118
sg30
VBatsman
p119
sg32
g20
sg34
I1
sg35
I4964
sg36
I1
sa(dp120
g2
I9
sg3
V60
p121
sg5
V288
p122
sg7
V30
p123
sg9
V50
p124
sg11
I0
sg12
I1188
sg13
V6.7
p125
sg15
Nsg16
I350
sg17
VSamiullah Shenwari
p126
sg19
g20
sg21
V99
p127
sg23
V8
p128
sg25
I1
sg26
VAfghanistan
p129
sg28
VAFG
p130
sg30
VAllrounder
p131
sg32
g20
sg34
I4
sg35
I7798
sg36
I1
sa(dp132
g2
I10
sg3
V180
p133
sg5
V280
p134
sg7
g50
sg9
V115
p135
sg11
I0
sg12
I15
sg13
g20
sg15
Nsg16
I350
sg17
VPaul van Meekeren
p136
sg19
g20
sg21
g50
sg23
V6
p137
sg25
I0
sg26
VNetherlands
p138
sg28
VNED
p139
sg30
VBowler
p140
sg32
g20
sg34
I2
sg35
I63893
sg36
I1
sa(dp141
g2
I11
sg3
V60
p142
sg5
V271
p143
sg7
V30
p144
sg9
V30
p145
sg11
I0
sg12
I2
sg13
V11.7
p146
sg15
Nsg16
I350
sg17
VSabbir Rahman
p147
sg19
g20
sg21
V109
p148
sg23
g78
sg25
I1
sg26
VBangladesh
p149
sg28
VBAN
p150
sg30
VBatsman
p151
sg32
g20
sg34
I1
sg35
I61361
sg36
I1
sa(dp152
g2
I12
sg3
V150
p153
sg5
V263
p154
sg7
g50
sg9
V105
p155
sg11
I0
sg12
I10
sg13
g50
sg15
Nsg16
I350
sg17
VWellington Masakadza
p156
sg19
g20
sg21
V12
p157
sg23
g137
sg25
I0
sg26
VZimbabwe
p158
sg28
VZIM
p159
sg30
VBowler
p160
sg32
g20
sg34
I2
sg35
I63154
sg36
I1
sa(dp161
g2
I13
sg3
V30
p162
sg5
V247
p163
sg7
V20
p164
sg9
V20
p165
sg11
I0
sg12
I1188
sg13
V4.9
p166
sg15
Nsg16
I350
sg17
VAsghar Stanikzai
p167
sg19
g20
sg21
V124
p168
sg23
g78
sg25
I1
sg26
VAfghanistan
p169
sg28
VAFG
p170
sg30
VBatsman
p171
sg32
g20
sg34
I1
sg35
I7795
sg36
I1
sa(dp172
g2
I14
sg3
V150
p173
sg5
V240
p174
sg7
V10
p175
sg9
V50
p176
sg11
I0
sg12
I5
sg13
V14.7
p177
sg15
V45
p178
sg16
I350
sg17
VIsh Sodhi
p179
sg19
g20
sg21
g50
sg23
g78
sg25
I1
sg26
VNew Zealand
p180
sg28
VNZ
p181
sg30
VBowler
p182
sg32
g20
sg34
I2
sg35
I57625
sg36
I1
sa(dp183
g2
I15
sg3
g50
sg5
V233
p184
sg7
V10
p185
sg9
V65
p186
sg11
I0
sg12
I9
sg13
V8.7
p187
sg15
Nsg16
I350
sg17
VChris Gayle
p188
sg19
g20
sg21
V100
p189
sg23
V12
p190
sg25
I1
sg26
VWest Indies
p191
sg28
VWI
p192
sg30
VBatsman
p193
sg32
g20
sg34
I1
sg35
I1201
sg36
I1
sa(dp194
g2
I16
sg3
g50
sg5
V228
p195
sg7
g50
sg9
V60
p196
sg11
I0
sg12
I3
sg13
V71.1
p197
sg15
Nsg16
I350
sg17
VJoe Root
p198
sg19
g20
sg21
V131
p199
sg23
V10
p200
sg25
I1
sg26
VEngland
p201
sg28
VENG
p202
sg30
VBatsman
p203
sg32
g20
sg34
I1
sg35
I10129
sg36
I1
sa(dp204
g2
I17
sg3
g50
sg5
V225
p205
sg7
V60
p206
sg9
V30
p207
sg11
I1
sg12
I7
sg13
V18.7
p208
sg15
Nsg16
I350
sg17
VQuinton de Kock
p209
sg19
g20
sg21
V97
p210
sg23
g24
sg25
I1
sg26
VSouth Africa
p211
sg28
VSA
p212
sg30
VWicketkeeper
p213
sg32
VBatsman
p214
sg34
I3
sg35
I28035
sg36
I1
sa(dp215
g2
I18
sg3
V150
p216
sg5
V217
p217
sg7
V10
p218
sg9
V35
p219
sg11
I0
sg12
I10
sg13
g20
sg15
Nsg16
I350
sg17
VDonald Tiripano
p220
sg19
g20
sg21
V2
p221
sg23
g137
sg25
I0
sg26
VZimbabwe
p222
sg28
VZIM
p223
sg30
VBowler
p224
sg32
g20
sg34
I2
sg35
I21561
sg36
I1
sa(dp225
g2
I19
sg3
V60
p226
sg5
V207
p227
sg7
V20
p228
sg9
V20
p229
sg11
I4
sg12
I10
sg13
g50
sg15
Nsg16
I350
sg17
VSean Williams
p230
sg19
g20
sg21
V78
p231
sg23
V10
p232
sg25
I0
sg26
VZimbabwe
p233
sg28
VZIM
p234
sg30
VBatsman
p235
sg32
VAllrounder
p236
sg34
I1
sg35
I3682
sg36
I1
sa(dp237
g2
I20
sg3
V60
p238
sg5
V204
p239
sg7
V20
p240
sg9
V45
p241
sg11
I4
sg12
I16
sg13
g20
sg15
Nsg16
I350
sg17
VMatt Machan
p242
sg19
g20
sg21
V60
p243
sg23
g128
sg25
I0
sg26
VScotland
p244
sg28
VSCO
p245
sg30
VBatsman
p246
sg32
VAllrounder
p247
sg34
I1
sg35
I51675
sg36
I1
sa(dp248
g2
I21
sg3
V90
p249
sg5
V198
p250
sg7
V10
p251
sg9
V25
p252
sg11
I0
sg12
I8
sg13
V2.3
p253
sg15
Nsg16
I350
sg17
VThisara Perera
p254
sg19
g20
sg21
V52
p255
sg23
g128
sg25
I1
sg26
VSri Lanka
p256
sg28
VSL
p257
sg30
VAllrounder
p258
sg32
g20
sg34
I4
sg35
I4417
sg36
I1
sa(dp259
g2
I22
sg3
V120
p260
sg5
V198
p261
sg7
g50
sg9
V35
p262
sg11
I0
sg12
I10
sg13
g20
sg15
Nsg16
I350
sg17
VTinashe Panyangara
p263
sg19
g20
sg21
V17
p264
sg23
g78
sg25
I0
sg26
VZimbabwe
p265
sg28
VZIM
p266
sg30
VBowler
p267
sg32
g20
sg34
I2
sg35
I3562
sg36
I1
sa(dp268
g2
I23
sg3
V120
p269
sg5
V195
p270
sg7
V10
p271
sg9
V55
p272
sg11
I4
sg12
I7
sg13
V3.3
p273
sg15
Nsg16
I350
sg17
VChris Morris
p274
sg19
g20
sg21
g50
sg23
g128
sg25
I1
sg26
VSouth Africa
p275
sg28
VSA
p276
sg30
VBowler
p277
sg32
VAllrounder
p278
sg34
I2
sg35
I48816
sg36
I1
sa(dp279
g2
I24
sg3
V60
p280
sg5
V193
p281
sg7
V40
p282
sg9
V25
p283
sg11
I0
sg12
I1
sg13
V9.6
p284
sg15
Nsg16
I350
sg17
VGlenn Maxwell
p285
sg19
g20
sg21
V48
p286
sg23
V10
p287
sg25
I1
sg26
VAustralia
p288
sg28
VAUS
p289
sg30
VAllrounder
p290
sg32
g20
sg34
I4
sg35
I10085
sg36
I1
sa(dp291
g2
I26
sg3
V60
p292
sg5
V189
p293
sg7
V10
p294
sg9
V25
p295
sg11
I0
sg12
I5
sg13
V42.1
p296
sg15
V54
p297
sg16
I350
sg17
VCorey Anderson
p298
sg19
g20
sg21
V58
p299
sg23
g24
sg25
I1
sg26
VNew Zealand
p300
sg28
VNZ
p301
sg30
VAllrounder
p302
sg32
g20
sg34
I4
sg35
I4332
sg36
I1
sa(dp303
g2
I25
sg3
V90
p304
sg5
V189
p305
sg7
V10
p306
sg9
V25
p307
sg11
I0
sg12
I9
sg13
V4.2
p308
sg15
Nsg16
I350
sg17
VAndre Russell
p309
sg19
g20
sg21
V36
p310
sg23
V10
p311
sg25
I1
sg26
VWest Indies
p312
sg28
VWI
p313
sg30
VAllrounder
p314
sg32
g20
sg34
I4
sg35
I12047
sg36
I1
sa(dp315
g2
I27
sg3
V120
p316
sg5
V189
p317
sg7
V10
p318
sg9
V30
p319
sg11
I0
sg12
I10
sg13
g20
sg15
Nsg16
I350
sg17
VTendai Chatara
p320
sg19
g20
sg21
g128
sg23
g137
sg25
I0
sg26
VZimbabwe
p321
sg28
VZIM
p322
sg30
VBowler
p323
sg32
g20
sg34
I2
sg35
I10201
sg36
I1
sa(dp324
g2
I28
sg3
V120
p325
sg5
V187
p326
sg7
V10
p327
sg9
V35
p328
sg11
I0
sg12
I9
sg13
V1.3
p329
sg15
Nsg16
I350
sg17
VDwayne Bravo
p330
sg19
g20
sg21
g221
sg23
V11
p331
sg25
I1
sg26
VWest Indies
p332
sg28
VWI
p333
sg30
VAllrounder
p334
sg32
g20
sg34
I4
sg35
I3556
sg36
I1
sa(dp335
g2
I29
sg3
V150
p336
sg5
V185
p337
sg7
g50
sg9
V25
p338
sg11
I0
sg12
I7
sg13
V1.7
p339
sg15
Nsg16
I350
sg17
VKyle Abbott
p340
sg19
g20
sg21
g50
sg23
g78
sg25
I1
sg26
VSouth Africa
p341
sg28
VSA
p342
sg30
VBowler
p343
sg32
g20
sg34
I2
sg35
I24144
sg36
I1
sa(dp344
g2
I30
sg3
V90
p345
sg5
V180
p346
sg7
V10
p347
sg9
V30
p348
sg11
I0
sg12
I1
sg13
V4.5
p349
sg15
Nsg16
I350
sg17
VShane Watson
p350
sg19
g20
sg21
V34
p351
sg23
V12
p352
sg25
I1
sg26
VAustralia
p353
sg28
VAUS
p354
sg30
VAllrounder
p355
sg32
g20
sg34
I4
sg35
I3355
sg36
I1
sa(dp356
g2
I31
sg3
g50
sg5
V176
p357
sg7
g50
sg9
V50
p358
sg11
I4
sg12
I8
sg13
V0.6
p359
sg15
Nsg16
I350
sg17
VTillakaratne Dilshan
p360
sg19
g20
sg21
V95
p361
sg23
V12
p362
sg25
I1
sg26
VSri Lanka
p363
sg28
VSL
p364
sg30
VBatsman
p365
sg32
VAllrounder
p366
sg34
I1
sg35
I978
sg36
I1
sa(dp367
g2
I34
sg3
V120
p368
sg5
V175
p369
sg7
g50
sg9
V35
p370
sg11
I0
sg12
I16
sg13
g20
sg15
Nsg16
I350
sg17
VMark Watt
p371
sg19
g20
sg21
g24
sg23
g104
sg25
I0
sg26
VScotland
p372
sg28
VSCO
p373
sg30
VBowler
p374
sg32
g20
sg34
I2
sg35
I64635
sg36
I1
sa(dp375
g2
I32
sg3
V30
p376
sg5
V175
p377
sg7
V10
p378
sg9
V25
p379
sg11
I4
sg12
I7
sg13
V4.6
p380
sg15
Nsg16
I350
sg17
VJP Duminy
p381
sg19
g20
sg21
V83
p382
sg23
g24
sg25
I1
sg26
VSouth Africa
p383
sg28
VSA
p384
sg30
VBatsman
p385
sg32
VAllrounder
p386
sg34
I1
sg35
I3637
sg36
I1
sa(dp387
g2
I33
sg3
g50
sg5
V175
p388
sg7
V10
p389
sg9
V50
p390
sg11
I3
sg12
I9
sg13
V2.7
p391
sg15
Nsg16
I350
sg17
VAndre Fletcher
p392
sg19
g20
sg21
V84
p393
sg23
g78
sg25
I1
sg26
VWest Indies
p394
sg28
VWI
p395
sg30
VBatsman
p396
sg32
VWicketkeeper
p397
sg34
I1
sg35
I4915
sg36
I1
sa(dp398
g2
I36
sg3
V90
p399
sg5
V172
p400
sg7
g50
sg9
V70
p401
sg11
I0
sg12
I1
sg13
V6.1
p402
sg15
Nsg16
I350
sg17
VAdam Zampa
p403
sg19
g20
sg21
g221
sg23
g137
sg25
I1
sg26
VAustralia
p404
sg28
VAUS
p405
sg30
VBowler
p406
sg32
g20
sg34
I2
sg35
I58913
sg36
I1
sa(dp407
g2
I35
sg3
V90
p408
sg5
V172
p409
sg7
V20
p410
sg9
V30
p411
sg11
I0
sg12
I5
sg13
V1.6
p412
sg15
V90
p413
sg16
I350
sg17
VAdam Milne
p414
sg19
g20
sg21
g221
sg23
g128
sg25
I1
sg26
VNew Zealand
p415
sg28
VNZ
p416
sg30
VBowler
p417
sg32
g20
sg34
I2
sg35
I11933
sg36
I1
sa(dp418
g2
I37
sg3
g50
sg5
V167
p419
sg7
V20
p420
sg9
V40
p421
sg11
I0
sg12
I10
sg13
g20
sg15
Nsg16
I350
sg17
VVusi Sibanda
p422
sg19
g20
sg21
V76
p423
sg23
g128
sg25
I0
sg26
VZimbabwe
p424
sg28
VZIM
p425
sg30
VBatsman
p426
sg32
g20
sg34
I1
sg35
I3490
sg36
I1
sa(dp427
g2
I40
sg3
V120
p428
sg5
V165
p429
sg7
g50
sg9
V25
p430
sg11
I0
sg12
I2
sg13
V4.8
p431
sg15
Nsg16
I350
sg17
VAl-Amin Hossain
p432
sg19
g20
sg21
g50
sg23
g137
sg25
I1
sg26
VBangladesh
p433
sg28
VBAN
p434
sg30
VBowler
p435
sg32
g20
sg34
I2
sg35
I58598
sg36
I1
sa(dp436
g2
I39
sg3
V120
p437
sg5
V165
p438
sg7
V10
p439
sg9
V25
p440
sg11
I0
sg12
I15
sg13
g20
sg15
Nsg16
I350
sg17
VTimm van der Gugten
p441
sg19
g20
sg21
g50
sg23
g78
sg25
I0
sg26
VNetherlands
p442
sg28
VNED
p443
sg30
VBowler
p444
sg32
g20
sg34
I2
sg35
I57031
sg36
I1
sa(dp445
g2
I38
sg3
V120
p446
sg5
V165
p447
sg7
V10
p448
sg9
V35
p449
sg11
I0
sg12
I6
sg13
V3.6
p450
sg15
V80
p451
sg16
I350
sg17
VMohammad Sami
p452
sg19
g20
sg21
g50
sg23
g128
sg25
I1
sg26
VPakistan
p453
sg28
VPAK
p454
sg30
VBowler
p455
sg32
g20
sg34
I2
sg35
I2146
sg36
I1
sa(dp456
g2
I42
sg3
V90
p457
sg5
V160
p458
sg7
g50
sg9
V50
p459
sg11
I0
sg12
I5
sg13
V8.4
p460
sg15
g104
sg16
I350
sg17
VMitchell McClenaghan
p461
sg19
g20
sg21
g50
sg23
g128
sg25
I1
sg26
VNew Zealand
p462
sg28
VNZ
p463
sg30
VBowler
p464
sg32
g20
sg34
I2
sg35
I11938
sg36
I1
sa(dp465
g2
I41
sg3
V90
p466
sg5
V160
p467
sg7
V10
p468
sg9
V50
p469
sg11
I0
sg12
I6
sg13
V59.9
p470
sg15
V-5
p471
sg16
I350
sg17
VMohammad Amir
p472
sg19
g20
sg21
g50
sg23
g24
sg25
I1
sg26
VPakistan
p473
sg28
VPAK
p474
sg30
VBowler
p475
sg32
g20
sg34
I2
sg35
I7768
sg36
I1
sa(dp476
g2
I43
sg3
V90
p477
sg5
V155
p478
sg7
V10
p479
sg9
V35
p480
sg11
I0
sg12
I9
sg13
V0.7
p481
sg15
Nsg16
I350
sg17
VSamuel Badree
p482
sg19
g20
sg21
g50
sg23
V10
p483
sg25
I1
sg26
VWest Indies
p484
sg28
VWI
p485
sg30
VBowler
p486
sg32
g20
sg34
I2
sg35
I9797
sg36
I1
sa(dp487
g2
I44
sg3
V60
p488
sg5
V151
p489
sg7
V30
p490
sg9
V20
p491
sg11
I4
sg12
I16
sg13
g20
sg15
Nsg16
I350
sg17
VJosh Davey
p492
sg19
g20
sg21
V24
p493
sg23
g128
sg25
I0
sg26
VScotland
p494
sg28
VSCO
p495
sg30
VBowler
p496
sg32
VAllrounder
p497
sg34
I2
sg35
I11919
sg36
I1
sa(dp498
g2
I48
sg3
V90
p499
sg5
V150
p500
sg7
g50
sg9
V40
p501
sg11
I0
sg12
I2
sg13
V0.2
p502
sg15
Nsg16
I350
sg17
VTaskin Ahmed
p503
sg19
g20
sg21
g50
sg23
g78
sg25
I0
sg26
VBangladesh
p504
sg28
VBAN
p505
sg30
VBowler
p506
sg32
g20
sg34
I2
sg35
I58314
sg36
I1
sa(dp507
g2
I46
sg3
g50
sg5
V150
p508
sg7
V10
p509
sg9
V40
p510
sg11
I0
sg12
I4
sg13
V55.2
p511
sg15
Nsg16
I350
sg17
VVirat Kohli
p512
sg19
g20
sg21
V78
p513
sg23
V12
p514
sg25
I1
sg26
VIndia
p515
sg28
VIND
p516
sg30
VBatsman
p517
sg32
g20
sg34
I1
sg35
I3993
sg36
I1
sa(dp518
g2
I45
sg3
g50
sg5
V150
p519
sg7
V10
p520
sg9
V25
p521
sg11
I3
sg12
I7
sg13
V8.6
p522
sg15
Nsg16
I350
sg17
VAB de Villiers
p523
sg19
g20
sg21
V80
p524
sg23
V12
p525
sg25
I1
sg26
VSouth Africa
p526
sg28
VSA
p527
sg30
VBatsman
p528
sg32
VWicketkeeper
p529
sg34
I1
sg35
I3675
sg36
I1
sa(dp530
g2
I47
sg3
V120
p531
sg5
V150
p532
sg7
g50
sg9
V20
p533
sg11
I0
sg12
I7
sg13
V1.8
p534
sg15
Nsg16
I350
sg17
VKagiso Rabada
p535
sg19
g20
sg21
g50
sg23
g128
sg25
I1
sg26
VSouth Africa
p536
sg28
VSA
p537
sg30
VBowler
p538
sg32
g20
sg34
I2
sg35
I63611
sg36
I1
sa(dp539
g2
I49
sg3
g50
sg5
V147
p540
sg7
g50
sg9
V-5
p541
sg11
I0
sg12
I1188
sg13
V0.7
p542
sg15
Nsg16
I350
sg17
VNoor Ali Zadran
p543
sg19
g20
sg21
V107
p544
sg23
g78
sg25
I1
sg26
VAfghanistan
p545
sg28
VAFG
p546
sg30
VBatsman
p547
sg32
g20
sg34
I1
sg35
I7802
sg36
I1
sa(dp548
g2
I50
sg3
V120
p549
sg5
V145
p550
sg7
g50
sg9
V25
p551
sg11
I0
sg12
I13
sg13
g20
sg15
Nsg16
I350
sg17
VGeorge Dockrell
p552
sg19
g20
sg21
g50
sg23
g128
sg25
I0
sg26
VIreland
p553
sg28
VIRE
p554
sg30
VBowler
p555
sg32
g20
sg34
I2
sg35
I9694
sg36
I1
sa(dp556
g2
I51
sg3
g50
sg5
V142
p557
sg7
g50
sg9
V20
p558
sg11
I0
sg12
I1
sg13
V13.3
p559
sg15
Nsg16
I350
sg17
VUsman Khawaja
p560
sg19
g20
sg21
V96
p561
sg23
g128
sg25
I1
sg26
VAustralia
p562
sg28
VAUS
p563
sg30
VBatsman
p564
sg32
g20
sg34
I1
sg35
I10048
sg36
I1
sa(dp565
g2
I52
sg3
g50
sg5
V141
p566
sg7
g50
sg9
V10
p567
sg11
I0
sg12
I6
sg13
V34.8
p568
sg15
V33
p569
sg16
I350
sg17
VAhmed Shehzad
p570
sg19
g20
sg21
V107
p571
sg23
g78
sg25
I1
sg26
VPakistan
p572
sg28
VPAK
p573
sg30
VBatsman
p574
sg32
g20
sg34
I1
sg35
I4250
sg36
I1
sa(dp575
g2
I53
sg3
g50
sg5
V139
p576
sg7
V40
p577
sg9
g104
sg11
I4
sg12
I2
sg13
V7.3
p578
sg15
Nsg16
I350
sg17
VMahmudullah
p579
sg19
g20
sg21
V63
p580
sg23
g24
sg25
I1
sg26
VBangladesh
p581
sg28
VBAN
p582
sg30
VBatsman
p583
sg32
VAllrounder
p584
sg34
I1
sg35
I3956
sg36
I1
sa(dp585
g2
I54
sg3
V90
p586
sg5
V139
p587
sg7
V10
p588
sg9
V10
p589
sg11
I0
sg12
I3
sg13
V26.5
p590
sg15
Nsg16
I350
sg17
VMoeen Ali
p591
sg19
g20
sg21
V15
p592
sg23
g128
sg25
I1
sg26
VEngland
p593
sg28
VENG
p594
sg30
VAllrounder
p595
sg32
g20
sg34
I4
sg35
I4688
sg36
I1
sa(dp596
g2
I56
sg3
V60
p597
sg5
V138
p598
sg7
g50
sg9
V35
p599
sg11
I0
sg12
I19
sg13
g50
sg15
Nsg16
I350
sg17
VTanwir Afzal
p600
sg19
g20
sg21
V37
p601
sg23
g78
sg25
I0
sg26
VHong Kong
p602
sg28
VHK
p603
sg30
VAllrounder
p604
sg32
g20
sg34
I4
sg35
I23920
sg36
I1
sa(dp605
g2
I55
sg3
V90
p606
sg5
V138
p607
sg7
V10
p608
sg9
V25
p609
sg11
I0
sg12
I15
sg13
g20
sg15
Nsg16
I350
sg17
VRoelof van der Merwe
p610
sg19
g20
sg21
V3
p611
sg23
g24
sg25
I0
sg26
VNetherlands
p612
sg28
VNED
p613
sg30
VAllrounder
p614
sg32
g20
sg34
I4
sg35
I5305
sg36
I1
sa(dp615
g2
I57
sg3
V30
p616
sg5
V137
p617
sg7
V20
p618
sg9
g50
sg11
I4
sg12
I1188
sg13
V1.3
p619
sg15
Nsg16
I350
sg17
VGulbadin Naib
p620
sg19
g20
sg21
V49
p621
sg23
g78
sg25
I1
sg26
VAfghanistan
p622
sg28
VAFG
p623
sg30
VBatsman
p624
sg32
VAllrounder
p625
sg34
I1
sg35
I56961
sg36
I1
sa(dp626
g2
I58
sg3
V60
p627
sg5
V135
p628
sg7
V10
p629
sg9
V15
p630
sg11
I4
sg12
I2
sg13
V1
p631
sg15
Nsg16
I350
sg17
VMashrafe Mortaza
p632
sg19
g20
sg21
V22
p633
sg23
g24
sg25
I1
sg26
VBangladesh
p634
sg28
VBAN
p635
sg30
VBowler
p636
sg32
VAllrounder
p637
sg34
I2
sg35
I1948
sg36
I1
sa(dp638
g2
I59
sg3
V60
p639
sg5
V135
p640
sg7
g50
sg9
V10
p641
sg11
I4
sg12
I28
sg13
g50
sg15
Nsg16
I350
sg17
VKhawar Ali
p642
sg19
g20
sg21
V42
p643
sg23
g137
sg25
I0
sg26
VOman
p644
sg28
VOMN
p645
sg30
VBatsman
p646
sg32
VAllrounder
p647
sg34
I1
sg35
I65602
sg36
I1
sa(dp648
g2
I60
sg3
g50
sg5
V133
p649
sg7
V10
p650
sg9
V10
p651
sg11
I0
sg12
I6
sg13
V3.5
p652
sg15
V74
p653
sg16
I350
sg17
VSharjeel Khan
p654
sg19
g20
sg21
V82
p655
sg23
g78
sg25
I1
sg26
VPakistan
p656
sg28
VPAK
p657
sg30
VBatsman
p658
sg32
g20
sg34
I1
sg35
I53008
sg36
I1
sa(dp659
g2
I61
sg3
V60
p660
sg5
V132
p661
sg7
V10
p662
sg9
V20
p663
sg11
I3
sg12
I19
sg13
g50
sg15
Nsg16
I350
sg17
VRyan Campbell
p664
sg19
g20
sg21
V36
p665
sg23
g137
sg25
I0
sg26
VHong Kong
p666
sg28
VHK
p667
sg30
VBatsman
p668
sg32
VWicketkeeper
p669
sg34
I1
sg35
I743
sg36
I1
sa(dp670
g2
I62
sg3
g50
sg5
V131
p671
sg7
V40
p672
sg9
V15
p673
sg11
I0
sg12
I5
sg13
V4
p674
sg15
V24
p675
sg16
I350
sg17
VLuke Ronchi
p676
sg19
g20
sg21
V38
p677
sg23
g128
sg25
I1
sg26
VNew Zealand
p678
sg28
VNZ
p679
sg30
VWicketkeeper
p680
sg32
g20
sg34
I3
sg35
I4601
sg36
I1
sa(dp681
g2
I65
sg3
V60
p682
sg5
V125
p683
sg7
V10
p684
sg9
V35
p685
sg11
I0
sg12
I1188
sg13
V1.1
p686
sg15
Nsg16
I350
sg17
VHamid Hassan
p687
sg19
g20
sg21
g50
sg23
g78
sg25
I1
sg26
VAfghanistan
p688
sg28
VAFG
p689
sg30
VBowler
p690
sg32
g20
sg34
I2
sg35
I7799
sg36
I1
sa(dp691
g2
I64
sg3
V90
p692
sg5
V125
p693
sg7
V20
p694
sg9
V15
p695
sg11
I0
sg12
I16
sg13
g20
sg15
Nsg16
I350
sg17
VAlasdair Evans
p696
sg19
g20
sg21
g50
sg23
g78
sg25
I0
sg26
VScotland
p697
sg28
VSCO
p698
sg30
VBowler
p699
sg32
g20
sg34
I2
sg35
I7862
sg36
I1
sa(dp700
g2
I63
sg3
V90
p701
sg5
V125
p702
sg7
g50
sg9
V25
p703
sg11
I0
sg12
I7
sg13
V2.7
p704
sg15
Nsg16
I350
sg17
VImran Tahir
p705
sg19
g20
sg21
g50
sg23
g24
sg25
I1
sg26
VSouth Africa
p706
sg28
VSA
p707
sg30
VBowler
p708
sg32
g20
sg34
I2
sg35
I4945
sg36
I1
sa(dp709
g2
I67
sg3
V90
p710
sg5
V118
p711
sg7
g50
sg9
V20
p712
sg11
I0
sg12
I19
sg13
g20
sg15
Nsg16
I350
sg17
VAizaz Khan
p713
sg19
g20
sg21
g78
sg23
g137
sg25
I0
sg26
VHong Kong
p714
sg28
VHK
p715
sg30
VBowler
p716
sg32
g20
sg34
I2
sg35
I7892
sg36
I1
sa(dp717
g2
I68
sg3
V90
p718
sg5
V118
p719
sg7
g50
sg9
V15
p720
sg11
I4
sg12
I13
sg13
g20
sg15
Nsg16
I350
sg17
VAndy McBrine
p721
sg19
g20
sg21
V11
p722
sg23
g137
sg25
I0
sg26
VIreland
p723
sg28
VIRE
p724
sg30
VBowler
p725
sg32
VAllrounder
p726
sg34
I2
sg35
I63160
sg36
I1
sa(dp727
g2
I66
sg3
V30
p728
sg5
V118
p729
sg7
V40
p730
sg9
g50
sg11
I4
sg12
I10
sg13
g50
sg15
Nsg16
I350
sg17
VSikandar Raza
p731
sg19
g20
sg21
V27
p732
sg23
g128
sg25
I0
sg26
VZimbabwe
p733
sg28
VZIM
p734
sg30
VBatsman
p735
sg32
VAllrounder
p736
sg34
I1
sg35
I25422
sg36
I1
sa(dp737
g2
I70
sg3
V60
p738
sg5
V116
p739
sg7
V10
p740
sg9
V25
p741
sg11
I0
sg12
I2
sg13
V0.1
p742
sg15
Nsg16
I350
sg17
VArafat Sunny
p743
sg19
g20
sg21
g128
sg23
g137
sg25
I0
sg26
VBangladesh
p744
sg28
VBAN
p745
sg30
VBowler
p746
sg32
g20
sg34
I2
sg35
I15472
sg36
I1
sa(dp747
g2
I69
sg3
g50
sg5
V116
p748
sg7
V10
p749
sg9
V10
p750
sg11
I0
sg12
I5
sg13
V1.6
p751
sg15
V61
p752
sg16
I350
sg17
VRoss Taylor
p753
sg19
g20
sg21
V57
p754
sg23
g24
sg25
I1
sg26
VNew Zealand
p755
sg28
VNZ
p756
sg30
VBatsman
p757
sg32
g20
sg34
I1
sg35
I3752
sg36
I1
sa(dp758
g2
I73
sg3
g50
sg5
V115
p759
sg7
V40
p760
sg9
g50
sg11
I0
sg12
I2
sg13
V2.1
p761
sg15
Nsg16
I350
sg17
VSoumya Sarkar
p762
sg19
g20
sg21
V48
p763
sg23
g78
sg25
I1
sg26
VBangladesh
p764
sg28
VBAN
p765
sg30
VBatsman
p766
sg32
g20
sg34
I1
sg35
I61831
sg36
I1
sa(dp767
g2
I74
sg3
V90
p768
sg5
V115
p769
sg7
V20
p770
sg9
g104
sg11
I0
sg12
I19
sg13
g20
sg15
Nsg16
I350
sg17
VNadeem Ahmed
p771
sg19
g20
sg21
g50
sg23
g78
sg25
I0
sg26
VHong Kong
p772
sg28
VHK
p773
sg30
VBowler
p774
sg32
g20
sg34
I2
sg35
I3599
sg36
I1
sa(dp775
g2
I72
sg3
V60
p776
sg5
V115
p777
sg7
V20
p778
sg9
V25
p779
sg11
I4
sg12
I5
sg13
g221
sg15
Nsg16
I350
sg17
VNathan McCullum
p780
sg19
g20
sg21
g50
sg23
g78
sg25
I1
sg26
VNew Zealand
p781
sg28
VNZ
p782
sg30
VBowler
p783
sg32
VAllrounder
p784
sg34
I2
sg35
I3900
sg36
I1
sa(dp785
g2
I71
sg3
g50
sg5
V115
p786
sg7
g50
sg9
V25
p787
sg11
I0
sg12
I7
sg13
V1.1
p788
sg15
Nsg16
I350
sg17
VHashim Amla
p789
sg19
g20
sg21
V63
p790
sg23
V10
p791
sg25
I1
sg26
VSouth Africa
p792
sg28
VSA
p793
sg30
VBatsman
p794
sg32
g20
sg34
I1
sg35
I3667
sg36
I1
sa(dp795
g2
I75
sg3
g50
sg5
V114
p796
sg7
V30
p797
sg9
V10
p798
sg11
I4
sg12
I6
sg13
V17.1
p799
sg15
V35
p800
sg16
I350
sg17
VShoaib Malik
p801
sg19
g20
sg21
V56
p802
sg23
V10
p803
sg25
I1
sg26
VPakistan
p804
sg28
VPAK
p805
sg30
VBatsman
p806
sg32
VAllrounder
p807
sg34
I1
sg35
I2734
sg36
I1
sa(dp808
g2
I76
sg3
V60
p809
sg5
V113
p810
sg7
V20
p811
sg9
V15
p812
sg11
I0
sg12
I1
sg13
V3.1
p813
sg15
Nsg16
I350
sg17
VJames Faulkner
p814
sg19
g20
sg21
g78
sg23
g24
sg25
I1
sg26
VAustralia
p815
sg28
VAUS
p816
sg30
VAllrounder
p817
sg32
g20
sg34
I4
sg35
I4249
sg36
I1
sa(dp818
g2
I77
sg3
V90
p819
sg5
V113
p820
sg7
g50
sg9
V10
p821
sg11
I0
sg12
I28
sg13
g20
sg15
Nsg16
I350
sg17
VMunis Ansari
p822
sg19
g20
sg21
g611
sg23
g78
sg25
I0
sg26
VOman
p823
sg28
VOMN
p824
sg30
VBowler
p825
sg32
g20
sg34
I2
sg35
I65599
sg36
I1
sa(dp826
g2
I79
sg3
g50
sg5
V112
p827
sg7
V30
p828
sg9
g50
sg11
I0
sg12
I1188
sg13
V0.3
p829
sg15
Nsg16
I350
sg17
VNajibullah Zadran
p830
sg19
g20
sg21
V41
p831
sg23
g78
sg25
I1
sg26
VAfghanistan
p832
sg28
VAFG
p833
sg30
VBatsman
p834
sg32
g20
sg34
I1
sg35
I57991
sg36
I1
sa(dp835
g2
I78
sg3
g50
sg5
V112
p836
sg7
g50
sg9
V20
p837
sg11
I0
sg12
I6
sg13
V4.9
p838
sg15
Nsg16
I350
sg17
VMohammad Hafeez
p839
sg19
g20
sg21
V69
p840
sg23
g24
sg25
I1
sg26
VPakistan
p841
sg28
VPAK
p842
sg30
VBatsman
p843
sg32
g20
sg34
I1
sg35
I3472
sg36
I1
sa(dp844
g2
I80
sg3
g50
sg5
V111
p845
sg7
g50
sg9
V15
p846
sg11
I0
sg12
I10
sg13
g50
sg15
Nsg16
I350
sg17
VElton Chigumbura
p847
sg19
g20
sg21
V60
p848
sg23
g24
sg25
I0
sg26
VZimbabwe
p849
sg28
VZIM
p850
sg30
VAllrounder
p851
sg32
g20
sg34
I4
sg35
I3557
sg36
I1
sa(dp852
g2
I81
sg3
g50
sg5
V110
p853
sg7
V20
p854
sg9
g104
sg11
I0
sg12
I5
sg13
V14.3
p855
sg15
V23
p856
sg16
I350
sg17
VKane Williamson
p857
sg19
g20
sg21
V49
p858
sg23
V10
p859
sg25
I1
sg26
VNew Zealand
p860
sg28
VNZ
p861
sg30
VBatsman
p862
sg32
g20
sg34
I1
sg35
I4330
sg36
I1
sa(dp863
g2
I82
sg3
g50
sg5
V109
p864
sg7
V10
p865
sg9
V15
p866
sg11
I0
sg12
I3
sg13
V46.8
p867
sg15
Nsg16
I350
sg17
VJason Roy
p868
sg19
g20
sg21
V58
p869
sg23
g78
sg25
I1
sg26
VEngland
p870
sg28
VENG
p871
sg30
VBatsman
p872
sg32
g20
sg34
I1
sg35
I33031
sg36
I1
sa(dp873
g2
I83
sg3
g50
sg5
V107
p874
sg7
V20
p875
sg9
g104
sg11
I0
sg12
I16
sg13
g20
sg15
Nsg16
I350
sg17
VKyle Coetzer
p876
sg19
g20
sg21
V63
p877
sg23
g128
sg25
I0
sg26
VScotland
p878
sg28
VSCO
p879
sg30
VBatsman
p880
sg32
g20
sg34
I1
sg35
I4625
sg36
I1
sa(dp881
g2
I84
sg3
V60
p882
sg5
V106
p883
sg7
V10
p884
sg9
V25
p885
sg11
I4
sg12
I4
sg13
V9.5
p886
sg15
Nsg16
I350
sg17
VSuresh Raina
p887
sg19
g20
sg21
g631
sg23
V10
p888
sg25
I1
sg26
VIndia
p889
sg28
VIND
p890
sg30
VBatsman
p891
sg32
VAllrounder
p892
sg34
I1
sg35
I3700
sg36
I1
sa(dp893
g2
I85
sg3
g50
sg5
V105
p894
sg7
V20
p895
sg9
V15
p896
sg11
I0
sg12
I7
sg13
V1.5
p897
sg15
Nsg16
I350
sg17
VDavid Miller
p898
sg19
g20
sg21
V47
p899
sg23
g24
sg25
I1
sg26
VSouth Africa
p900
sg28
VSA
p901
sg30
VBatsman
p902
sg32
g20
sg34
I1
sg35
I5313
sg36
I1
sa(dp903
g2
I86
sg3
g50
sg5
V105
p904
sg7
V20
p905
sg9
V10
p906
sg11
I0
sg12
I10
sg13
g20
sg15
Nsg16
I350
sg17
VHamilton Masakadza
p907
sg19
g20
sg21
V43
p908
sg23
g24
sg25
I0
sg26
VZimbabwe
p909
sg28
VZIM
p910
sg30
VBatsman
p911
sg32
g20
sg34
I1
sg35
I1946
sg36
I1
sa(dp912
g2
I87
sg3
g50
sg5
V101
p913
sg7
g50
sg9
g104
sg11
I3
sg12
I19
sg13
g20
sg15
Nsg16
I350
sg17
VJamie Atkinson
p914
sg19
g20
sg21
V82
p915
sg23
g78
sg25
I0
sg26
VHong Kong
p916
sg28
VHK
p917
sg30
VBatsman
p918
sg32
VWicketkeeper
p919
sg34
I1
sg35
I4903
sg36
I1
sa(dp920
g2
I88
sg3
g50
sg5
V101
p921
sg7
V50
p922
sg9
V-5
p923
sg11
I0
sg12
I10
sg13
g20
sg15
Nsg16
I350
sg17
VRichmond Mutumbami
p924
sg19
g20
sg21
V29
p925
sg23
g78
sg25
I0
sg26
VZimbabwe
p926
sg28
VZIM
p927
sg30
VWicketkeeper
p928
sg32
g20
sg34
I3
sg35
I13163
sg36
I1
sa(dp929
g2
I89
sg3
V60
p930
sg5
V100
p931
sg7
g50
sg9
V30
p932
sg11
I0
sg12
I4
sg13
V11.3
p933
sg15
Nsg16
I350
sg17
VAshish Nehra
p934
sg19
g20
sg21
g50
sg23
g128
sg25
I1
sg26
VIndia
p935
sg28
VIND
p936
sg30
VBowler
p937
sg32
g20
sg34
I2
sg35
I2214
sg36
I1
sa(dp938
g2
I90
sg3
g50
sg5
V100
p939
sg7
g50
sg9
V45
p940
sg11
I4
sg12
I28
sg13
g20
sg15
Nsg16
I350
sg17
VAmir Ali
p941
sg19
g20
sg21
V36
p942
sg23
g137
sg25
I0
sg26
VOman
p943
sg28
VOMN
p944
sg30
VBatsman
p945
sg32
VAllrounder
p946
sg34
I1
sg35
I58969
sg36
I1
sa(dp947
g2
I92
sg3
g50
sg5
V98
p948
sg7
g50
sg9
g104
sg11
I0
sg12
I16
sg13
g20
sg15
Nsg16
I350
sg17
VGeorge Munsey
p949
sg19
g20
sg21
V68
p950
sg23
g137
sg25
I0
sg26
VScotland
p951
sg28
VSCO
p952
sg30
VBatsman
p953
sg32
g20
sg34
I1
sg35
I64957
sg36
I1
sa(dp954
g2
I91
sg3
V60
p955
sg5
V98
p956
sg7
g50
sg9
V25
p957
sg11
I0
sg12
I8
sg13
V0.5
p958
sg15
Nsg16
I350
sg17
VRangana Herath
p959
sg19
g20
sg21
g611
sg23
g24
sg25
I1
sg26
VSri Lanka
p960
sg28
VSL
p961
sg30
VBowler
p962
sg32
g20
sg34
I2
sg35
I1448
sg36
I1
sa(dp963
g2
I93
sg3
V30
p964
sg5
V97
p965
sg7
g50
sg9
V10
p966
sg11
I4
sg12
I8
sg13
V0.3
p967
sg15
Nsg16
I350
sg17
VAngelo Mathews
p968
sg19
g20
sg21
V41
p969
sg23
V11
p970
sg25
I1
sg26
VSri Lanka
p971
sg28
VSL
p972
sg30
VBatsman
p973
sg32
VAllrounder
p974
sg34
I1
sg35
I5244
sg36
I1
sa(dp975
g2
I94
sg3
g50
sg5
V95
p976
sg7
V10
p977
sg9
V15
p978
sg11
I4
sg12
I5
sg13
V3.3
p979
sg15
V21
p980
sg16
I350
sg17
VGrant Elliott
p981
sg19
g20
sg21
V37
p982
sg23
g128
sg25
I1
sg26
VNew Zealand
p983
sg28
VNZ
p984
sg30
VBatsman
p985
sg32
VAllrounder
p986
sg34
I1
sg35
I4492
sg36
I1
sa(dp987
g2
I95
sg3
g50
sg5
V91
p988
sg7
V10
p989
sg9
g104
sg11
I0
sg12
I15
sg13
g20
sg15
Nsg16
I350
sg17
VStephan Myburgh
p990
sg19
g20
sg21
V56
p991
sg23
g128
sg25
I0
sg26
VNetherlands
p992
sg28
VNED
p993
sg30
VBatsman
p994
sg32
g20
sg34
I1
sg35
I22116
sg36
I1
sa(dp995
g2
I96
sg3
g50
sg5
V90
p996
sg7
V30
p997
sg9
g50
sg11
I1
sg12
I4
sg13
V16.2
p998
sg15
Nsg16
I350
sg17
VMS Dhoni
p999
sg19
g20
sg21
V43
p1000
sg23
V10
p1001
sg25
I1
sg26
VIndia
p1002
sg28
VIND
p1003
sg30
VWicketkeeper
p1004
sg32
VBatsman
p1005
sg34
I3
sg35
I3676
sg36
I1
sa(dp1006
g2
I97
sg3
V60
p1007
sg5
V90
p1008
sg7
V10
p1009
sg9
V10
p1010
sg11
I0
sg12
I4
sg13
V6.2
p1011
sg15
Nsg16
I350
sg17
VRavindra Jadeja
p1012
sg19
g20
sg21
g50
sg23
g24
sg25
I1
sg26
VIndia
p1013
sg28
VIND
p1014
sg30
VAllrounder
p1015
sg32
g20
sg34
I4
sg35
I3850
sg36
I1
sa(dp1016
g2
I98
sg3
g50
sg5
V89
p1017
sg7
g50
sg9
V10
p1018
sg11
I0
sg12
I7
sg13
V0.9
p1019
sg15
Nsg16
I350
sg17
VFaf du Plessis
p1020
sg19
g20
sg21
V58
p1021
sg23
V10
p1022
sg25
I1
sg26
VSouth Africa
p1023
sg28
VSA
p1024
sg30
VBatsman
p1025
sg32
g20
sg34
I1
sg35
I28891
sg36
I1
sa(dp1026
g2
I99
sg3
g50
sg5
V88
p1027
sg7
V40
p1028
sg9
V-10
p1029
sg11
I1
sg12
I2
sg13
V0.9
p1030
sg15
Nsg16
I350
sg17
VMushfiqur Rahim
p1031
sg19
g20
sg21
V33
p1032
sg23
V10
p1033
sg25
I1
sg26
VBangladesh
p1034
sg28
VBAN
p1035
sg30
VWicketkeeper
p1036
sg32
VBatsman
p1037
sg34
I3
sg35
I3693
sg36
I1
sa(dp1038
g2
I101
sg3
g50
sg5
V87
p1039
sg7
V20
p1040
sg9
g50
sg11
I3
sg12
I1188
sg13
V1.1
p1041
sg15
Nsg16
I350
sg17
VShafiqullah
p1042
sg19
g20
sg21
V31
p1043
sg23
g137
sg25
I1
sg26
VAfghanistan
p1044
sg28
VAFG
p1045
sg30
VBatsman
p1046
sg32
VWicketkeeper
p1047
sg34
I1
sg35
I7800
sg36
I1
sa(dp1048
g2
I100
sg3
V30
p1049
sg5
V87
p1050
sg7
V10
p1051
sg9
g50
sg11
I0
sg12
I1
sg13
V1.7
p1052
sg15
Nsg16
I350
sg17
VMitchell Marsh
p1053
sg19
g20
sg21
V30
p1054
sg23
g128
sg25
I1
sg26
VAustralia
p1055
sg28
VAUS
p1056
sg30
VAllrounder
p1057
sg32
g20
sg34
I4
sg35
I10094
sg36
I1
sa(dp1058
g2
I102
sg3
V60
p1059
sg5
V85
p1060
sg7
g50
sg9
V15
p1061
sg11
I0
sg12
I4
sg13
V34.6
p1062
sg15
Nsg16
I350
sg17
VJasprit Bumrah
p1063
sg19
g20
sg21
g50
sg23
g78
sg25
I1
sg26
VIndia
p1064
sg28
VIND
p1065
sg30
VBowler
p1066
sg32
g20
sg34
I2
sg35
I63755
sg36
I1
sa(dp1067
g2
I103
sg3
g50
sg5
V84
p1068
sg7
g50
sg9
V10
p1069
sg11
I1
sg12
I3
sg13
V16.6
p1070
sg15
Nsg16
I350
sg17
VJos Buttler
p1071
sg19
g20
sg21
V51
p1072
sg23
V11
p1073
sg25
I1
sg26
VEngland
p1074
sg28
VENG
p1075
sg30
VWicketkeeper
p1076
sg32
VBatsman
p1077
sg34
I3
sg35
I9782
sg36
I1
sa(dp1078
g2
I104
sg3
V30
p1079
sg5
V84
p1080
sg7
g50
sg9
V-5
p1081
sg11
I4
sg12
I15
sg13
g20
sg15
Nsg16
I350
sg17
VPeter Borren
p1082
sg19
g20
sg21
V43
p1083
sg23
g128
sg25
I0
sg26
VNetherlands
p1084
sg28
VNED
p1085
sg30
VBatsman
p1086
sg32
VAllrounder
p1087
sg34
I1
sg35
I3771
sg36
I1
sa(dp1088
g2
I106
sg3
V60
p1089
sg5
V83
p1090
sg7
g50
sg9
V-15
p1091
sg11
I0
sg12
I1188
sg13
g631
sg15
Nsg16
I350
sg17
VDawlat Zadran
p1092
sg19
g20
sg21
g128
sg23
g128
sg25
I1
sg26
VAfghanistan
p1093
sg28
VAFG
p1094
sg30
VBowler
p1095
sg32
g20
sg34
I2
sg35
I56960
sg36
I1
sa(dp1096
g2
I105
sg3
g50
sg5
V83
p1097
sg7
V20
p1098
sg9
g50
sg11
I0
sg12
I3
sg13
V20.5
p1099
sg15
Nsg16
I350
sg17
VAlex Hales
p1100
sg19
g20
sg21
V45
p1101
sg23
g24
sg25
I1
sg26
VEngland
p1102
sg28
VENG
p1103
sg30
VBatsman
p1104
sg32
g20
sg34
I1
sg35
I22878
sg36
I1
sa(dp1105
g2
I107
sg3
g50
sg5
V81
p1106
sg7
V10
p1107
sg9
V-5
p1108
sg11
I4
sg12
I19
sg13
g20
sg15
Nsg16
I350
sg17
VMark Chapman
p1109
sg19
g20
sg21
V67
p1110
sg23
g128
sg25
I0
sg26
VHong Kong
p1111
sg28
VHK
p1112
sg30
VBatsman
p1113
sg32
VAllrounder
p1114
sg34
I1
sg35
I60536
sg36
I1
sa(dp1115
g2
I108
sg3
V60
p1116
sg5
V80
p1117
sg7
g50
sg9
g104
sg11
I0
sg12
I13
sg13
g50
sg15
Nsg16
I350
sg17
VKevin O'Brien
p1118
sg19
g20
sg21
V14
p1119
sg23
V10
p1120
sg25
I0
sg26
VIreland
p1121
sg28
VIRE
p1122
sg30
VAllrounder
p1123
sg32
g20
sg34
I4
sg35
I3773
sg36
I1
sa(dp1124
g2
I109
sg3
V60
p1125
sg5
V79
p1126
sg7
g50
sg9
V10
p1127
sg11
I0
sg12
I13
sg13
g20
sg15
Nsg16
I350
sg17
VMax Sorensen
p1128
sg19
g20
sg21
g24
sg23
g78
sg25
I0
sg26
VIreland
p1129
sg28
VIRE
p1130
sg30
VBowler
p1131
sg32
g20
sg34
I2
sg35
I57118
sg36
I1
sa(dp1132
g2
I110
sg3
g50
sg5
V78
p1133
sg7
V30
p1134
sg9
V-5
p1135
sg11
I3
sg12
I8
sg13
g631
sg15
Nsg16
I350
sg17
VDinesh Chandimal
p1136
sg19
g20
sg21
V34
p1137
sg23
g24
sg25
I1
sg26
VSri Lanka
p1138
sg28
VSL
p1139
sg30
VBatsman
p1140
sg32
VWicketkeeper
p1141
sg34
I1
sg35
I4393
sg36
I1
sa(dp1142
g2
I111
sg3
g50
sg5
V76
p1143
sg7
V10
p1144
sg9
V10
p1145
sg11
I0
sg12
I3
sg13
V5.5
p1146
sg15
Nsg16
I350
sg17
VEoin Morgan
p1147
sg19
g20
sg21
V39
p1148
sg23
V11
p1149
sg25
I1
sg26
VEngland
p1150
sg28
VENG
p1151
sg30
VBatsman
p1152
sg32
g20
sg34
I1
sg35
I3823
sg36
I1
sa(dp1153
g2
I112
sg3
V60
p1154
sg5
V76
p1155
sg7
g50
sg9
V15
p1156
sg11
I0
sg12
I16
sg13
g20
sg15
Nsg16
I350
sg17
VSafyaan Sharif
p1157
sg19
g20
sg21
g631
sg23
g137
sg25
I0
sg26
VScotland
p1158
sg28
VSCO
p1159
sg30
VBowler
p1160
sg32
g20
sg34
I2
sg35
I56957
sg36
I1
sa(dp1161
g2
I113
sg3
V60
p1162
sg5
V75
p1163
sg7
g50
sg9
V15
p1164
sg11
I0
sg12
I2
sg13
V4.2
p1165
sg15
Nsg16
I350
sg17
VMustafizur Rahman
p1166
sg19
g20
sg21
g50
sg23
g24
sg25
I1
sg26
VBangladesh
p1167
sg28
VBAN
p1168
sg30
VBowler
p1169
sg32
g20
sg34
I2
sg35
I63881
sg36
I1
sa(dp1170
g2
I114
sg3
V60
p1171
sg5
V75
p1172
sg7
g50
sg9
g104
sg11
I0
sg12
I8
sg13
V0.4
p1173
sg15
Nsg16
I350
sg17
VMilinda Siriwardana
p1174
sg19
g20
sg21
g50
sg23
g78
sg25
I1
sg26
VSri Lanka
p1175
sg28
VSL
p1176
sg30
VAllrounder
p1177
sg32
g20
sg34
I4
sg35
I23033
sg36
I1
sa(dp1178
g2
I115
sg3
g50
sg5
V73
p1179
sg7
g50
sg9
g104
sg11
I0
sg12
I9
sg13
V0.8
p1180
sg15
Nsg16
I350
sg17
VMarlon Samuels
p1181
sg19
g20
sg21
V40
p1182
sg23
g24
sg25
I1
sg26
VWest Indies
p1183
sg28
VWI
p1184
sg30
VBatsman
p1185
sg32
g20
sg34
I1
sg35
I2630
sg36
I1
sa(dp1186
g2
I116
sg3
g50
sg5
V71
p1187
sg7
V10
p1188
sg9
g104
sg11
I4
sg12
I13
sg13
g50
sg15
Nsg16
I350
sg17
VPaul Stirling
p1189
sg19
g20
sg21
V44
p1190
sg23
g24
sg25
I0
sg26
VIreland
p1191
sg28
VIRE
p1192
sg30
VBatsman
p1193
sg32
VAllrounder
p1194
sg34
I1
sg35
I4476
sg36
I1
sa(dp1195
g2
I118
sg3
V60
p1196
sg5
V70
p1197
sg7
V10
p1198
sg9
V-10
p1199
sg11
I4
sg12
I3
sg13
V15.2
p1200
sg15
Nsg16
I350
sg17
VAdil Rashid
p1201
sg19
g20
sg21
g50
sg23
g128
sg25
I1
sg26
VEngland
p1202
sg28
VENG
p1203
sg30
VBowler
p1204
sg32
VAllrounder
p1205
sg34
I2
sg35
I4661
sg36
I1
sa(dp1206
g2
I117
sg3
V30
p1207
sg5
V70
p1208
sg7
V10
p1209
sg9
V10
p1210
sg11
I4
sg12
I4
sg13
V13.2
p1211
sg15
Nsg16
I350
sg17
VRavichandran Ashwin
p1212
sg19
g20
sg21
V10
p1213
sg23
V11
p1214
sg25
I1
sg26
VIndia
p1215
sg28
VIND
p1216
sg30
VBowler
p1217
sg32
VAllrounder
p1218
sg34
I2
sg35
I4555
sg36
I1
sa(dp1219
g2
I119
sg3
g50
sg5
V69
p1220
sg7
g50
sg9
g104
sg11
I0
sg12
I28
sg13
g20
sg15
Nsg16
I350
sg17
VJatinder Singh
p1221
sg19
g20
sg21
V49
p1222
sg23
g78
sg25
I0
sg26
VOman
p1223
sg28
VOMN
p1224
sg30
VBatsman
p1225
sg32
g20
sg34
I1
sg35
I60454
sg36
I1
sa(dp1226
g2
I120
sg3
g50
sg5
V68
p1227
sg7
g50
sg9
V-5
p1228
sg11
I0
sg12
I5
sg13
V11.1
p1229
sg15
V18
p1230
sg16
I350
sg17
VColin Munro
p1231
sg19
g20
sg21
V37
p1232
sg23
g78
sg25
I1
sg26
VNew Zealand
p1233
sg28
VNZ
p1234
sg30
VBatsman
p1235
sg32
g20
sg34
I1
sg35
I11724
sg36
I1
sa(dp1236
g2
I121
sg3
V30
p1237
sg5
V68
p1238
sg7
g50
sg9
V20
p1239
sg11
I0
sg12
I28
sg13
g50
sg15
Nsg16
I350
sg17
VAjay Lalcheta
p1240
sg19
g20
sg21
g78
sg23
g137
sg25
I0
sg26
VOman
p1241
sg28
VOMN
p1242
sg30
VBowler
p1243
sg32
g20
sg34
I2
sg35
I58988
sg36
I1
sa(dp1244
g2
I122
sg3
g50
sg5
V66
p1245
sg7
V20
p1246
sg9
g104
sg11
I1
sg12
I16
sg13
g50
sg15
Nsg16
I350
sg17
VMatthew Cross
p1247
sg19
g20
sg21
V24
p1248
sg23
g78
sg25
I0
sg26
VScotland
p1249
sg28
VSCO
p1250
sg30
VWicketkeeper
p1251
sg32
VBatsman
p1252
sg34
I3
sg35
I63122
sg36
I1
sa(dp1253
g2
I125
sg3
V60
p1254
sg5
V65
p1255
sg7
V10
p1256
sg9
V-15
p1257
sg11
I4
sg12
I3
sg13
g137
sg15
Nsg16
I350
sg17
VDavid Willey
p1258
sg19
g20
sg21
g50
sg23
g78
sg25
I1
sg26
VEngland
p1259
sg28
VENG
p1260
sg30
VBowler
p1261
sg32
VAllrounder
p1262
sg34
I2
sg35
I35128
sg36
I1
sa(dp1263
g2
I126
sg3
g50
sg5
V65
p1264
sg7
V10
p1265
sg9
V-10
p1266
sg11
I4
sg12
I19
sg13
g20
sg15
Nsg16
I350
sg17
VAnshy Rath
p1267
sg19
g20
sg21
V62
p1268
sg23
g78
sg25
I0
sg26
VHong Kong
p1269
sg28
VHK
p1270
sg30
VBatsman
p1271
sg32
VAllrounder
p1272
sg34
I1
sg35
I65108
sg36
I1
sa(dp1273
g2
I123
sg3
g50
sg5
V65
p1274
sg7
V10
p1275
sg9
V-5
p1276
sg11
I0
sg12
I16
sg13
g20
sg15
Nsg16
I350
sg17
VPreston Mommsen
p1277
sg19
g20
sg21
V48
p1278
sg23
g24
sg25
I0
sg26
VScotland
p1279
sg28
VSCO
p1280
sg30
VBatsman
p1281
sg32
g20
sg34
I1
sg35
I11918
sg36
I1
sa(dp1282
g2
I127
sg3
V30
p1283
sg5
V65
p1284
sg7
g50
sg9
V35
p1285
sg11
I0
sg12
I8
sg13
V1.1
p1286
sg15
Nsg16
I350
sg17
VJeffrey Vandersay
p1287
sg19
g20
sg21
g50
sg23
g104
sg25
I1
sg26
VSri Lanka
p1288
sg28
VSL
p1289
sg30
VBowler
p1290
sg32
g20
sg34
I2
sg35
I57709
sg36
I1
sa(dp1291
g2
I124
sg3
V30
p1292
sg5
V65
p1293
sg7
g50
sg9
V15
p1294
sg11
I0
sg12
I9
sg13
V0.5
p1295
sg15
Nsg16
I350
sg17
VSulieman Benn
p1296
sg19
g20
sg21
g50
sg23
g78
sg25
I1
sg26
VWest Indies
p1297
sg28
VWI
p1298
sg30
VBowler
p1299
sg32
g20
sg34
I2
sg35
I4535
sg36
I1
sa(dp1300
g2
I128
sg3
g50
sg5
V63
p1301
sg7
V40
p1302
sg9
V-5
p1303
sg11
I0
sg12
I19
sg13
g50
sg15
Nsg16
I350
sg17
VBabar Hayat
p1304
sg19
g20
sg21
V24
p1305
sg23
g128
sg25
I0
sg26
VHong Kong
p1306
sg28
VHK
p1307
sg30
VBatsman
p1308
sg32
g20
sg34
I1
sg35
I59227
sg36
I1
sa(dp1309
g2
I130
sg3
g50
sg5
V63
p1310
sg7
g50
sg9
g104
sg11
I4
sg12
I16
sg13
g20
sg15
Nsg16
I350
sg17
VRichie Berrington
p1311
sg19
g20
sg21
V44
p1312
sg23
g78
sg25
I0
sg26
VScotland
p1313
sg28
VSCO
p1314
sg30
VBatsman
p1315
sg32
VAllrounder
p1316
sg34
I1
sg35
I4023
sg36
I1
sa(dp1317
g2
I129
sg3
g50
sg5
V63
p1318
sg7
g50
sg9
V-5
p1319
sg11
I0
sg12
I10
sg13
g20
sg15
Nsg16
I350
sg17
VMalcolm Waller
p1320
sg19
g20
sg21
V46
p1321
sg23
g78
sg25
I0
sg26
VZimbabwe
p1322
sg28
VZIM
p1323
sg30
VBatsman
p1324
sg32
g20
sg34
I1
sg35
I5378
sg36
I1
sa(dp1325
g2
I132
sg3
g50
sg5
V61
p1326
sg7
V40
p1327
sg9
g50
sg11
I3
sg12
I13
sg13
g20
sg15
Nsg16
I350
sg17
VNiall O'Brien
p1328
sg19
g20
sg21
V20
p1329
sg23
g128
sg25
I0
sg26
VIreland
p1330
sg28
VIRE
p1331
sg30
VBatsman
p1332
sg32
VWicketkeeper
p1333
sg34
I1
sg35
I3824
sg36
I1
sa(dp1334
g2
I131
sg3
g50
sg5
V61
p1335
sg7
V20
p1336
sg9
g50
sg11
I0
sg12
I13
sg13
g20
sg15
Nsg16
I350
sg17
VWilliam Porterfield
p1337
sg19
g20
sg21
V34
p1338
sg23
g24
sg25
I0
sg26
VIreland
p1339
sg28
VIRE
p1340
sg30
VBatsman
p1341
sg32
g20
sg34
I1
sg35
I3822
sg36
I1
sa(dp1342
g2
I135
sg3
V30
p1343
sg5
V60
p1344
sg7
V10
p1345
sg9
V10
p1346
sg11
I0
sg12
I6
sg13
V4.9
p1347
sg15
g104
sg16
I350
sg17
VImad Wasim
p1348
sg19
g20
sg21
g50
sg23
g137
sg25
I1
sg26
VPakistan
p1349
sg28
VPAK
p1350
sg30
VAllrounder
p1351
sg32
g20
sg34
I4
sg35
I11025
sg36
I1
sa(dp1352
g2
I134
sg3
V60
p1353
sg5
V60
p1354
sg7
g50
sg9
V-10
p1355
sg11
I0
sg12
I6
sg13
V1.4
p1356
sg15
V25
p1357
sg16
I350
sg17
VMohammad Irfan
p1358
sg19
g20
sg21
g50
sg23
g24
sg25
I1
sg26
VPakistan
p1359
sg28
VPAK
p1360
sg30
VBowler
p1361
sg32
g20
sg34
I2
sg35
I11965
sg36
I1
sa(dp1362
g2
I133
sg3
g50
sg5
V60
p1363
sg7
g50
sg9
g50
sg11
I3
sg12
I6
sg13
V12.7
p1364
sg15
V24
p1365
sg16
I350
sg17
VUmar Akmal
p1366
sg19
g20
sg21
V46
p1367
sg23
g24
sg25
I1
sg26
VPakistan
p1368
sg28
VPAK
p1369
sg30
VBatsman
p1370
sg32
VWicketkeeper
p1371
sg34
I1
sg35
I4264
sg36
I1
sa(dp1372
g2
I136
sg3
g50
sg5
V59
p1373
sg7
V20
p1374
sg9
g50
sg11
I3
sg12
I2
sg13
V0.8
p1375
sg15
Nsg16
I350
sg17
VMohammad Mithun
p1376
sg19
g20
sg21
V25
p1377
sg23
g137
sg25
I1
sg26
VBangladesh
p1378
sg28
VBAN
p1379
sg30
VBatsman
p1380
sg32
VWicketkeeper
p1381
sg34
I1
sg35
I11756
sg36
I1
sa(dp1382
g2
I137
sg3
g50
sg5
V59
p1383
sg7
V10
p1384
sg9
V-5
p1385
sg11
I0
sg12
I28
sg13
g20
sg15
Nsg16
I350
sg17
VZeeshan Maqsood
p1386
sg19
g20
sg21
V38
p1387
sg23
g137
sg25
I0
sg26
VOman
p1388
sg28
VOMN
p1389
sg30
VBatsman
p1390
sg32
g20
sg34
I1
sg35
I65594
sg36
I1
sa(dp1391
g2
I139
sg3
g50
sg5
V58
p1392
sg7
V10
p1393
sg9
g50
sg11
I1
sg12
I13
sg13
g50
sg15
Nsg16
I350
sg17
VGary Wilson
p1394
sg19
g20
sg21
V42
p1395
sg23
g128
sg25
I0
sg26
VIreland
p1396
sg28
VIRE
p1397
sg30
VWicketkeeper
p1398
sg32
VBatsman
p1399
sg34
I3
sg35
I3941
sg36
I1
sa(dp1400
g2
I138
sg3
g50
sg5
V58
p1401
sg7
V20
p1402
sg9
g104
sg11
I0
sg12
I15
sg13
g20
sg15
Nsg16
I350
sg17
VBen Cooper
p1403
sg19
g20
sg21
V20
p1404
sg23
g128
sg25
I0
sg26
VNetherlands
p1405
sg28
VNED
p1406
sg30
VBatsman
p1407
sg32
g20
sg34
I1
sg35
I64166
sg36
I1
sa(dp1408
g2
I140
sg3
g50
sg5
V58
p1409
sg7
V20
p1410
sg9
g50
sg11
I1
sg12
I9
sg13
V0.6
p1411
sg15
Nsg16
I350
sg17
VDenesh Ramdin
p1412
sg19
g20
sg21
V17
p1413
sg23
g78
sg25
I1
sg26
VWest Indies
p1414
sg28
VWI
p1415
sg30
VWicketkeeper
p1416
sg32
VBatsman
p1417
sg34
I3
sg35
I3696
sg36
I1
sa(dp1418
g2
I142
sg3
V30
p1419
sg5
V55
p1420
sg7
V20
p1421
sg9
V-5
p1422
sg11
I0
sg12
I16
sg13
g20
sg15
Nsg16
I350
sg17
VGavin Main
p1423
sg19
g20
sg21
g50
sg23
g104
sg25
I0
sg26
VScotland
p1424
sg28
VSCO
p1425
sg30
VBowler
p1426
sg32
g20
sg34
I2
sg35
I63128
sg36
I1
sa(dp1427
g2
I141
sg3
V30
p1428
sg5
V55
p1429
sg7
V10
p1430
sg9
V-5
p1431
sg11
I4
sg12
I9
sg13
V0.4
p1432
sg15
Nsg16
I350
sg17
VCarlos Brathwaite
p1433
sg19
g20
sg21
g50
sg23
g78
sg25
I1
sg26
VWest Indies
p1434
sg28
VWI
p1435
sg30
VBowler
p1436
sg32
VAllrounder
p1437
sg34
I2
sg35
I56973
sg36
I1
sa(dp1438
g2
I143
sg3
V30
p1439
sg5
V51
p1440
sg7
V20
p1441
sg9
V-10
p1442
sg11
I0
sg12
I4
sg13
V9.8
p1443
sg15
Nsg16
I350
sg17
VHardik Pandya
p1444
sg19
g20
sg21
g631
sg23
g78
sg25
I1
sg26
VIndia
p1445
sg28
VIND
p1446
sg30
VAllrounder
p1447
sg32
g20
sg34
I4
sg35
I63751
sg36
I1
sa(dp1448
g2
I144
sg3
V30
p1449
sg5
V50
p1450
sg7
g50
sg9
V10
p1451
sg11
I0
sg12
I16
sg13
g20
sg15
Nsg16
I350
sg17
VCon de Lange
p1452
sg19
g20
sg21
g50
sg23
g137
sg25
I0
sg26
VScotland
p1453
sg28
VSCO
p1454
sg30
VBowler
p1455
sg32
g20
sg34
I2
sg35
I45620
sg36
I1
sa(dp1456
g2
I147
sg3
V30
p1457
sg5
V48
p1458
sg7
g50
sg9
g104
sg11
I0
sg12
I1188
sg13
V0.6
p1459
sg15
Nsg16
I350
sg17
VAmir Hamza
p1460
sg19
g20
sg21
g611
sg23
g137
sg25
I1
sg26
VAfghanistan
p1461
sg28
VAFG
p1462
sg30
VBowler
p1463
sg32
g20
sg34
I2
sg35
I10104
sg36
I1
sa(dp1464
g2
I146
sg3
V30
p1465
sg5
V48
p1466
sg7
V10
p1467
sg9
V-5
p1468
sg11
I4
sg12
I2
sg13
V0.4
p1469
sg15
Nsg16
I350
sg17
VNasir Hossain
p1470
sg19
g20
sg21
g611
sg23
g78
sg25
I1
sg26
VBangladesh
p1471
sg28
VBAN
p1472
sg30
VBatsman
p1473
sg32
VAllrounder
p1474
sg34
I1
sg35
I11010
sg36
I1
sa(dp1475
g2
I145
sg3
g50
sg5
V48
p1476
sg7
V10
p1477
sg9
V10
p1478
sg11
I0
sg12
I15
sg13
g20
sg15
Nsg16
I350
sg17
VMudassar Bukhari
p1479
sg19
g20
sg21
V14
p1480
sg23
g128
sg25
I0
sg26
VNetherlands
p1481
sg28
VNED
p1482
sg30
VBowler
p1483
sg32
g20
sg34
I2
sg35
I3951
sg36
I1
sa(dp1484
g2
I148
sg3
g50
sg5
V43
p1485
sg7
g50
sg9
g50
sg11
I4
sg12
I4
sg13
V8.3
p1486
sg15
Nsg16
I350
sg17
VYuvraj Singh
p1487
sg19
g20
sg21
V28
p1488
sg23
g24
sg25
I1
sg26
VIndia
p1489
sg28
VIND
p1490
sg30
VBatsman
p1491
sg32
VAllrounder
p1492
sg34
I1
sg35
I3314
sg36
I1
sa(dp1493
g2
I149
sg3
V30
p1494
sg5
V42
p1495
sg7
g50
sg9
V-5
p1496
sg11
I0
sg12
I8
sg13
V0.2
p1497
sg15
Nsg16
I350
sg17
VNuwan Kulasekara
p1498
sg19
g20
sg21
g78
sg23
g128
sg25
I1
sg26
VSri Lanka
p1499
sg28
VSL
p1500
sg30
VBowler
p1501
sg32
g20
sg34
I2
sg35
I3530
sg36
I1
sa(dp1502
g2
I150
sg3
g50
sg5
V41
p1503
sg7
V10
p1504
sg9
g50
sg11
I1
sg12
I15
sg13
g20
sg15
Nsg16
I350
sg17
VWesley Barresi
p1505
sg19
g20
sg21
V17
p1506
sg23
g128
sg25
I0
sg26
VNetherlands
p1507
sg28
VNED
p1508
sg30
VWicketkeeper
p1509
sg32
VBatsman
p1510
sg34
I3
sg35
I9876
sg36
I1
sa(dp1511
g2
I153
sg3
V30
p1512
sg5
V40
p1513
sg7
V20
p1514
sg9
V-10
p1515
sg11
I0
sg12
I13
sg13
g20
sg15
Nsg16
I350
sg17
VBoyd Rankin
p1516
sg19
g20
sg21
g50
sg23
g128
sg25
I0
sg26
VIreland
p1517
sg28
VIRE
p1518
sg30
VBowler
p1519
sg32
g20
sg34
I2
sg35
I3906
sg36
I1
sa(dp1520
g2
I152
sg3
g50
sg5
V40
p1521
sg7
V10
p1522
sg9
g50
sg11
I0
sg12
I6
sg13
g611
sg15
V11
p1523
sg16
I350
sg17
VSarfraz Ahmed
p1524
sg19
g20
sg21
V19
p1525
sg23
g24
sg25
I1
sg26
VPakistan
p1526
sg28
VPAK
p1527
sg30
VWicketkeeper
p1528
sg32
g20
sg34
I3
sg35
I4038
sg36
I1
sa(dp1529
g2
I151
sg3
V30
p1530
sg5
V40
p1531
sg7
g50
sg9
g50
sg11
I0
sg12
I6
sg13
V0.3
p1532
sg15
Nsg16
I350
sg17
VWahab Riaz
p1533
sg19
g20
sg21
g50
sg23
V10
p1534
sg25
I1
sg26
VPakistan
p1535
sg28
VPAK
p1536
sg30
VBowler
p1537
sg32
g20
sg34
I2
sg35
I4226
sg36
I1
sa(dp1538
g2
I154
sg3
g50
sg5
V40
p1539
sg7
V10
p1540
sg9
V20
p1541
sg11
I0
sg12
I8
sg13
V0.9
p1542
sg15
Nsg16
I350
sg17
VDushmantha Chameera
p1543
sg19
g20
sg21
g50
sg23
g137
sg25
I1
sg26
VSri Lanka
p1544
sg28
VSL
p1545
sg30
VBowler
p1546
sg32
g20
sg34
I2
sg35
I58065
sg36
I1
sa(dp1547
g2
I155
sg3
g50
sg5
V39
p1548
sg7
g50
sg9
V-10
p1549
sg11
I0
sg12
I3
sg13
g24
sg15
Nsg16
I350
sg17
VBen Stokes
p1550
sg19
g20
sg21
V30
p1551
sg23
g24
sg25
I1
sg26
VEngland
p1552
sg28
VENG
p1553
sg30
VAllrounder
p1554
sg32
g20
sg34
I4
sg35
I10130
sg36
I1
sa(dp1555
g2
I156
sg3
g50
sg5
V37
p1556
sg7
g50
sg9
g50
sg11
I0
sg12
I1
sg13
V2.1
p1557
sg15
Nsg16
I350
sg17
VDavid Warner
p1558
sg19
g20
sg21
V23
p1559
sg23
V11
p1560
sg25
I1
sg26
VAustralia
p1561
sg28
VAUS
p1562
sg30
VBatsman
p1563
sg32
g20
sg34
I1
sg35
I5380
sg36
I1
sa(dp1564
g2
I158
sg3
g50
sg5
V36
p1565
sg7
V10
p1566
sg9
V-5
p1567
sg11
I4
sg12
I19
sg13
g50
sg15
Nsg16
I350
sg17
VNizakat Khan
p1568
sg19
g20
sg21
V25
p1569
sg23
g137
sg25
I0
sg26
VHong Kong
p1570
sg28
VHK
p1571
sg30
VBatsman
p1572
sg32
VAllrounder
p1573
sg34
I1
sg35
I7897
sg36
I1
sa(dp1574
g2
I157
sg3
g50
sg5
V36
p1575
sg7
V10
p1576
sg9
V-5
p1577
sg11
I3
sg12
I9
sg13
V0.4
p1578
sg15
Nsg16
I350
sg17
VJohnson Charles
p1579
sg19
g20
sg21
V10
p1580
sg23
g78
sg25
I1
sg26
VWest Indies
p1581
sg28
VWI
p1582
sg30
VBatsman
p1583
sg32
VWicketkeeper
p1584
sg34
I1
sg35
I25890
sg36
I1
sa(dp1585
g2
I159
sg3
g50
sg5
V34
p1586
sg7
g50
sg9
g50
sg11
I0
sg12
I1
sg13
V1.6
p1587
sg15
Nsg16
I350
sg17
VSteven Smith
p1588
sg19
g20
sg21
V20
p1589
sg23
V10
p1590
sg25
I1
sg26
VAustralia
p1591
sg28
VAUS
p1592
sg30
VBatsman
p1593
sg32
g20
sg34
I1
sg35
I4308
sg36
I1
sa(dp1594
g2
I160
sg3
g50
sg5
V33
p1595
sg7
V10
p1596
sg9
g50
sg11
I0
sg12
I8
sg13
V0.2
p1597
sg15
Nsg16
I350
sg17
VLahiru Thirimanne
p1598
sg19
g20
sg21
V11
p1599
sg23
g128
sg25
I1
sg26
VSri Lanka
p1600
sg28
VSL
p1601
sg30
VBatsman
p1602
sg32
g20
sg34
I1
sg35
I4484
sg36
I1
sa(dp1603
g2
I161
sg3
g50
sg5
V31
p1604
sg7
V10
p1605
sg9
V10
p1606
sg11
I0
sg12
I1
sg13
g631
sg15
Nsg16
I350
sg17
VNathan Coulter-Nile
p1607
sg19
g20
sg21
g631
sg23
g78
sg25
I1
sg26
VAustralia
p1608
sg28
VAUS
p1609
sg30
VBowler
p1610
sg32
g20
sg34
I2
sg35
I10090
sg36
I1
sa(dp1611
g2
I162
sg3
g50
sg5
V31
p1612
sg7
V10
p1613
sg9
g50
sg11
I1
sg12
I1
sg13
V1.2
p1614
sg15
Nsg16
I350
sg17
VPeter Nevill
p1615
sg19
g20
sg21
g128
sg23
g137
sg25
I1
sg26
VAustralia
p1616
sg28
VAUS
p1617
sg30
VWicketkeeper
p1618
sg32
VBatsman
p1619
sg34
I3
sg35
I10052
sg36
I1
sa(dp1620
g2
I163
sg3
V30
p1621
sg5
V30
p1622
sg7
g50
sg9
V-10
p1623
sg11
I0
sg12
I3
sg13
g631
sg15
Nsg16
I350
sg17
VReece Topley
p1624
sg19
g20
sg21
g50
sg23
g78
sg25
I1
sg26
VEngland
p1625
sg28
VENG
p1626
sg30
VBowler
p1627
sg32
g20
sg34
I2
sg35
I58101
sg36
I1
sa(dp1628
g2
I165
sg3
g50
sg5
V30
p1629
sg7
V10
p1630
sg9
g50
sg11
I3
sg12
I19
sg13
g50
sg15
Nsg16
I350
sg17
VKinchit Shah
p1631
sg19
g20
sg21
V18
p1632
sg23
g104
sg25
I0
sg26
VHong Kong
p1633
sg28
VHK
p1634
sg30
VBatsman
p1635
sg32
VWicketkeeper
p1636
sg34
I1
sg35
I60184
sg36
I1
sa(dp1637
g2
I164
sg3
V30
p1638
sg5
V30
p1639
sg7
g50
sg9
V-10
p1640
sg11
I4
sg12
I28
sg13
g20
sg15
Nsg16
I350
sg17
VAamir Kaleem
p1641
sg19
g20
sg21
g50
sg23
g78
sg25
I0
sg26
VOman
p1642
sg28
VOMN
p1643
sg30
VBatsman
p1644
sg32
VAllrounder
p1645
sg34
I1
sg35
I58777
sg36
I1
sa(dp1646
g2
I166
sg3
g50
sg5
V29
p1647
sg7
g50
sg9
g50
sg11
I0
sg12
I28
sg13
g20
sg15
Nsg16
I350
sg17
VAdnan Ilyas
p1648
sg19
g20
sg21
V17
p1649
sg23
g104
sg25
I0
sg26
VOman
p1650
sg28
VOMN
p1651
sg30
VBatsman
p1652
sg32
g20
sg34
I1
sg35
I4070
sg36
I1
sa(dp1653
g2
I168
sg3
g50
sg5
V28
p1654
sg7
V10
p1655
sg9
g50
sg11
I0
sg12
I15
sg13
g20
sg15
Nsg16
I350
sg17
VPieter Seelaar
p1656
sg19
g20
sg21
g78
sg23
g78
sg25
I0
sg26
VNetherlands
p1657
sg28
VNED
p1658
sg30
VBowler
p1659
sg32
g20
sg34
I2
sg35
I3781
sg36
I1
sa(dp1660
g2
I167
sg3
g50
sg5
V28
p1661
sg7
g50
sg9
g50
sg11
I0
sg12
I8
sg13
V0.2
p1662
sg15
Nsg16
I350
sg17
VChamara Kapugedera
p1663
sg19
g20
sg21
V16
p1664
sg23
g128
sg25
I1
sg26
VSri Lanka
p1665
sg28
VSL
p1666
sg30
VBatsman
p1667
sg32
g20
sg34
I1
sg35
I3740
sg36
I1
sa(dp1668
g2
I171
sg3
g50
sg5
V27
p1669
sg7
V20
p1670
sg9
V-5
p1671
sg11
I4
sg12
I1
sg13
V0.6
p1672
sg15
Nsg16
I350
sg17
VAshton Agar
p1673
sg19
g20
sg21
g24
sg23
g137
sg25
I1
sg26
VAustralia
p1674
sg28
VAUS
p1675
sg30
VBowler
p1676
sg32
VAllrounder
p1677
sg34
I2
sg35
I57172
sg36
I1
sa(dp1678
g2
I169
sg3
g50
sg5
V27
p1679
sg7
g50
sg9
g50
sg11
I0
sg12
I4
sg13
V15.2
p1680
sg15
Nsg16
I350
sg17
VRohit Sharma
p1681
sg19
g20
sg21
V15
p1682
sg23
V12
p1683
sg25
I1
sg26
VIndia
p1684
sg28
VIND
p1685
sg30
VBatsman
p1686
sg32
g20
sg34
I1
sg35
I3852
sg36
I1
sa(dp1687
g2
I170
sg3
g50
sg5
V27
p1688
sg7
V10
p1689
sg9
V-10
p1690
sg11
I4
sg12
I15
sg13
g20
sg15
Nsg16
I350
sg17
VTom Cooper
p1691
sg19
g20
sg21
V15
p1692
sg23
g128
sg25
I0
sg26
VNetherlands
p1693
sg28
VNED
p1694
sg30
VBatsman
p1695
sg32
VAllrounder
p1696
sg34
I1
sg35
I11920
sg36
I1
sa(dp1697
g2
I173
sg3
V30
p1698
sg5
V26
p1699
sg7
g50
sg9
V-5
p1700
sg11
I0
sg12
I1188
sg13
V0.5
p1701
sg15
Nsg16
I350
sg17
VShapoor Zadran
p1702
sg19
g20
sg21
g631
sg23
g78
sg25
I1
sg26
VAfghanistan
p1703
sg28
VAFG
p1704
sg30
VBowler
p1705
sg32
g20
sg34
I2
sg35
I7803
sg36
I1
sa(dp1706
g2
I172
sg3
g50
sg5
V26
p1707
sg7
g50
sg9
V15
p1708
sg11
I0
sg12
I28
sg13
g20
sg15
Nsg16
I350
sg17
VBilal Khan
p1709
sg19
g20
sg21
g631
sg23
g78
sg25
I0
sg26
VOman
p1710
sg28
VOMN
p1711
sg30
VBowler
p1712
sg32
g20
sg34
I2
sg35
I28370
sg36
I1
sa(dp1713
g2
I174
sg3
g50
sg5
V25
p1714
sg7
V20
p1715
sg9
V-5
p1716
sg11
I4
sg12
I16
sg13
g20
sg15
Nsg16
I350
sg17
VMichael Leask
p1717
sg19
g20
sg21
g24
sg23
g78
sg25
I0
sg26
VScotland
p1718
sg28
VSCO
p1719
sg30
VBowler
p1720
sg32
VAllrounder
p1721
sg34
I2
sg35
I63917
sg36
I1
sa(dp1722
g2
I175
sg3
g50
sg5
V23
p1723
sg7
V10
p1724
sg9
V-5
p1725
sg11
I0
sg12
I4
sg13
V5.6
p1726
sg15
Nsg16
I350
sg17
VShikhar Dhawan
p1727
sg19
g20
sg21
g78
sg23
g24
sg25
I1
sg26
VIndia
p1728
sg28
VIND
p1729
sg30
VBatsman
p1730
sg32
g20
sg34
I1
sg35
I3722
sg36
I1
sa(dp1731
g2
I177
sg3
g50
sg5
V22
p1732
sg7
g50
sg9
g104
sg11
I4
sg12
I2
sg13
V0.2
p1733
sg15
Nsg16
I350
sg17
VShuvagata Hom
p1734
sg19
g20
sg21
V13
p1735
sg23
g137
sg25
I1
sg26
VBangladesh
p1736
sg28
VBAN
p1737
sg30
VBowler
p1738
sg32
VAllrounder
p1739
sg34
I2
sg35
I25025
sg36
I1
sa(dp1740
g2
I176
sg3
g50
sg5
V22
p1741
sg7
V10
p1742
sg9
g50
sg11
I0
sg12
I28
sg13
g20
sg15
Nsg16
I350
sg17
VSultan Ahmed
p1743
sg19
g20
sg21
g221
sg23
g78
sg25
I0
sg26
VOman
p1744
sg28
VOMN
p1745
sg30
VWicketkeeper
p1746
sg32
g20
sg34
I3
sg35
I4072
sg36
I1
sa(dp1747
g2
I179
sg3
g50
sg5
V20
p1748
sg7
g50
sg9
V10
p1749
sg11
I0
sg12
I15
sg13
g20
sg15
Nsg16
I350
sg17
VAhsan Malik
p1750
sg19
g20
sg21
g50
sg23
g78
sg25
I0
sg26
VNetherlands
p1751
sg28
VNED
p1752
sg30
VBowler
p1753
sg32
g20
sg34
I2
sg35
I56958
sg36
I1
sa(dp1754
g2
I180
sg3
g50
sg5
V20
p1755
sg7
V10
p1756
sg9
V-5
p1757
sg11
I0
sg12
I28
sg13
g50
sg15
Nsg16
I350
sg17
VMehran Khan
p1758
sg19
g20
sg21
g104
sg23
g137
sg25
I0
sg26
VOman
p1759
sg28
VOMN
p1760
sg30
VAllrounder
p1761
sg32
g20
sg34
I4
sg35
I65603
sg36
I1
sa(dp1762
g2
I178
sg3
g50
sg5
V20
p1763
sg7
g50
sg9
g50
sg11
I4
sg12
I9
sg13
V0.7
p1764
sg15
Nsg16
I350
sg17
VDarren Sammy
p1765
sg19
g20
sg21
g50
sg23
g24
sg25
I1
sg26
VWest Indies
p1766
sg28
VWI
p1767
sg30
VBowler
p1768
sg32
VAllrounder
p1769
sg34
I2
sg35
I3569
sg36
I1
sa(dp1770
g2
I181
sg3
g50
sg5
V16
p1771
sg7
g50
sg9
g50
sg11
I0
sg12
I3
sg13
V1.9
p1772
sg15
Nsg16
I350
sg17
VChris Jordan
p1773
sg19
g20
sg21
g104
sg23
g78
sg25
I1
sg26
VEngland
p1774
sg28
VENG
p1775
sg30
VBowler
p1776
sg32
g20
sg34
I2
sg35
I26718
sg36
I1
sa(dp1777
g2
I184
sg3
g50
sg5
V15
p1778
sg7
g50
sg9
g104
sg11
I4
sg12
I16
sg13
g20
sg15
Nsg16
I350
sg17
VRob Taylor
p1779
sg19
g20
sg21
g50
sg23
g137
sg25
I0
sg26
VScotland
p1780
sg28
VSCO
p1781
sg30
VBowler
p1782
sg32
VAllrounder
p1783
sg34
I2
sg35
I28611
sg36
I1
sa(dp1784
g2
I183
sg3
g50
sg5
V15
p1785
sg7
V10
p1786
sg9
V-5
p1787
sg11
I4
sg12
I7
sg13
V0.4
p1788
sg15
Nsg16
I350
sg17
VDavid Wiese
p1789
sg19
g20
sg21
g50
sg23
g78
sg25
I1
sg26
VSouth Africa
p1790
sg28
VSA
p1791
sg30
VBowler
p1792
sg32
VAllrounder
p1793
sg34
I2
sg35
I45853
sg36
I1
sa(dp1794
g2
I182
sg3
g50
sg5
V15
p1795
sg7
V10
p1796
sg9
V-5
p1797
sg11
I0
sg12
I9
sg13
V0.1
p1798
sg15
Nsg16
I350
sg17
VJerome Taylor
p1799
sg19
g20
sg21
g50
sg23
g128
sg25
I1
sg26
VWest Indies
p1800
sg28
VWI
p1801
sg30
VBowler
p1802
sg32
g20
sg34
I2
sg35
I3499
sg36
I1
sa(dp1803
g2
I185
sg3
g50
sg5
V13
p1804
sg7
g50
sg9
g50
sg11
I4
sg12
I1
sg13
V0.2
p1805
sg15
Nsg16
I350
sg17
VJohn Hastings
p1806
sg19
g20
sg21
g611
sg23
g128
sg25
I1
sg26
VAustralia
p1807
sg28
VAUS
p1808
sg30
VBowler
p1809
sg32
VAllrounder
p1810
sg34
I2
sg35
I4198
sg36
I1
sa(dp1811
g2
I186
sg3
g50
sg5
V13
p1812
sg7
V10
p1813
sg9
g50
sg11
I0
sg12
I6
sg13
V0.5
p1814
sg15
V13
p1815
sg16
I350
sg17
VKhalid Latif
p1816
sg19
g20
sg21
g611
sg23
g137
sg25
I1
sg26
VPakistan
p1817
sg28
VPAK
p1818
sg30
VBatsman
p1819
sg32
g20
sg34
I1
sg35
I3985
sg36
I1
sa(dp1820
g2
I187
sg3
g50
sg5
V12
p1821
sg7
V10
p1822
sg9
g50
sg11
I0
sg12
I16
sg13
g20
sg15
Nsg16
I350
sg17
VCalum MacLeod
p1823
sg19
g20
sg21
g221
sg23
g78
sg25
I0
sg26
VScotland
p1824
sg28
VSCO
p1825
sg30
VBatsman
p1826
sg32
g20
sg34
I1
sg35
I4017
sg36
I1
sa(dp1827
g2
I190
sg3
g50
sg5
V10
p1828
sg7
g50
sg9
g50
sg11
I0
sg12
I2
sg13
V0.6
p1829
sg15
Nsg16
I350
sg17
VAbu Hider
p1830
sg19
g20
sg21
g50
sg23
g104
sg25
I1
sg26
VBangladesh
p1831
sg28
VBAN
p1832
sg30
VBowler
p1833
sg32
g20
sg34
I2
sg35
I63066
sg36
I1
sa(dp1834
g2
I189
sg3
g50
sg5
V10
p1835
sg7
g50
sg9
V10
p1836
sg11
I0
sg12
I13
sg13
g20
sg15
Nsg16
I350
sg17
VCraig Young
p1837
sg19
g20
sg21
g50
sg23
g137
sg25
I0
sg26
VIreland
p1838
sg28
VIRE
p1839
sg30
VBowler
p1840
sg32
g20
sg34
I2
sg35
I59442
sg36
I1
sa(dp1841
g2
I188
sg3
g50
sg5
V10
p1842
sg7
g50
sg9
g50
sg11
I4
sg12
I8
sg13
V0.3
p1843
sg15
Nsg16
I350
sg17
VShehan Jayasuriya
p1844
sg19
g20
sg21
g50
sg23
g137
sg25
I1
sg26
VSri Lanka
p1845
sg28
VSL
p1846
sg30
VBatsman
p1847
sg32
VAllrounder
p1848
sg34
I1
sg35
I56746
sg36
I1
sa(dp1849
g2
I191
sg3
g50
sg5
g24
sg7
g50
sg9
V-5
p1850
sg11
I0
sg12
I13
sg13
g20
sg15
Nsg16
I350
sg17
VAndrew Poynter
p1851
sg19
g20
sg21
V11
p1852
sg23
g137
sg25
I0
sg26
VIreland
p1853
sg28
VIRE
p1854
sg30
VBatsman
p1855
sg32
g20
sg34
I1
sg35
I4938
sg36
I1
sa(dp1856
g2
I228
sg3
g50
sg5
g50
sg7
g50
sg9
g50
sg11
I0
sg12
I19
sg13
g20
sg15
Nsg16
I350
sg17
VAdil Mehmood
p1857
sg19
g20
sg21
g50
sg23
g137
sg25
I0
sg26
VHong Kong
p1858
sg28
VHK
p1859
sg30
VBowler
p1860
sg32
g20
sg34
I2
sg35
I57190
sg36
I1
sa(dp1861
g2
I212
sg3
g50
sg5
g50
sg7
V10
p1862
sg9
V-10
p1863
sg11
I0
sg12
I13
sg13
g20
sg15
Nsg16
I350
sg17
VTim Murtagh
p1864
sg19
g20
sg21
g50
sg23
g78
sg25
I0
sg26
VIreland
p1865
sg28
VIRE
p1866
sg30
VBowler
p1867
sg32
g20
sg34
I2
sg35
I4794
sg36
I1
sa(dp1868
g2
I252
sg3
g50
sg5
V-1
p1869
sg7
g50
sg9
V-5
p1870
sg11
I4
sg12
I15
sg13
g20
sg15
Nsg16
I350
sg17
VLogan van Beek
p1871
sg19
g20
sg21
g674
sg23
g137
sg25
I0
sg26
VNetherlands
p1872
sg28
VNED
p1873
sg30
VBowler
p1874
sg32
VAllrounder
p1875
sg34
I2
sg35
I10176
sg36
I1
sa(dp1876
g2
I254
sg3
g50
sg5
V-5
p1877
sg7
g50
sg9
V-5
p1878
sg11
I0
sg12
I2
sg13
V0.3
p1879
sg15
Nsg16
I350
sg17
VSaqlain Sajib
p1880
sg19
g20
sg21
g50
sg23
g104
sg25
I1
sg26
VBangladesh
p1881
sg28
VBAN
p1882
sg30
VBowler
p1883
sg32
g20
sg34
I2
sg35
I61184
sg36
I1
sa(dp1884
g2
I253
sg3
g50
sg5
V-5
p1885
sg7
g50
sg9
V-5
p1886
sg11
I0
sg12
I7
sg13
V0.4
p1887
sg15
Nsg16
I350
sg17
VDale Steyn
p1888
sg19
g20
sg21
g50
sg23
V10
p1889
sg25
I1
sg26
VSouth Africa
p1890
sg28
VSA
p1891
sg30
VBowler
p1892
sg32
g20
sg34
I2
sg35
I3674
sg36
I1
sa(dp1893
g2
I255
sg3
g50
sg5
V-10
p1894
sg7
g50
sg9
V-10
p1895
sg11
I4
sg12
I1188
sg13
V0.2
p1896
sg15
Nsg16
I350
sg17
VKarim Sadiq
p1897
sg19
g20
sg21
g50
sg23
g78
sg25
I1
sg26
VAfghanistan
p1898
sg28
VAFG
p1899
sg30
VBatsman
p1900
sg32
VAllrounder
p1901
sg34
I1
sg35
I7792
sg36
I1
sa(dp1902
g2
I256
sg3
g50
sg5
V-10
p1903
sg7
g50
sg9
V-10
p1904
sg11
I0
sg12
I19
sg13
g50
sg15
Nsg16
I350
sg17
VHaseeb Amjad
p1905
sg19
g20
sg21
g50
sg23
g78
sg25
I0
sg26
VHong Kong
p1906
sg28
VHK
p1907
sg30
VBowler
p1908
sg32
g20
sg34
I2
sg35
I25404
sg36
I1
sa(dp1909
g2
I226
sg3
Nsg5
Nsg7
Nsg9
Nsg11
I0
sg12
I1188
sg13
V0.2
p1910
sg15
Nsg16
I350
sg17
VUsman Ghani
p1911
sg19
g20
sg21
Nsg23
g137
sg25
I1
sg26
VAfghanistan
p1912
sg28
VAFG
p1913
sg30
VBatsman
p1914
sg32
g20
sg34
I1
sg35
I64657
sg36
I1
sa(dp1915
g2
I192
sg3
Nsg5
Nsg7
Nsg9
Nsg11
I0
sg12
I1
sg13
V0.2
p1916
sg15
Nsg16
I350
sg17
VAaron Finch
p1917
sg19
g20
sg21
Nsg23
V11
p1918
sg25
I1
sg26
VAustralia
p1919
sg28
VAUS
p1920
sg30
VBatsman
p1921
sg32
g20
sg34
I1
sg35
I4196
sg36
I1
sa(dp1922
g2
I227
sg3
Nsg5
Nsg7
Nsg9
Nsg11
I0
sg12
I1
sg13
V0.2
p1923
sg15
Nsg16
I350
sg17
VAndrew Tye
p1924
sg19
g20
sg21
Nsg23
g137
sg25
I1
sg26
VAustralia
p1925
sg28
VAUS
p1926
sg30
VBowler
p1927
sg32
g20
sg34
I2
sg35
I64274
sg36
I1
sa(dp1928
g2
I203
sg3
Nsg5
Nsg7
Nsg9
Nsg11
I0
sg12
I1
sg13
V0.3
p1929
sg15
Nsg16
I350
sg17
VJosh Hazlewood
p1930
sg19
g20
sg21
Nsg23
g128
sg25
I1
sg26
VAustralia
p1931
sg28
VAUS
p1932
sg30
VBowler
p1933
sg32
g20
sg34
I2
sg35
I4255
sg36
I1
sa(dp1934
g2
I229
sg3
Nsg5
Nsg7
Nsg9
Nsg11
I3
sg12
I2
sg13
V0.2
p1935
sg15
Nsg16
I350
sg17
VNurul Hasan
p1936
sg19
g20
sg21
Nsg23
g137
sg25
I1
sg26
VBangladesh
p1937
sg28
VBAN
p1938
sg30
VBatsman
p1939
sg32
VWicketkeeper
p1940
sg34
I1
sg35
I10219
sg36
I1
sa(dp1941
g2
I234
sg3
Nsg5
Nsg7
Nsg9
Nsg11
I0
sg12
I3
sg13
V0.3
p1942
sg15
Nsg16
I350
sg17
VJames Vince
p1943
sg19
g20
sg21
Nsg23
g137
sg25
I1
sg26
VEngland
p1944
sg28
VENG
p1945
sg30
VBatsman
p1946
sg32
g20
sg34
I1
sg35
I10131
sg36
I1
sa(dp1947
g2
I223
sg3
Nsg5
Nsg7
Nsg9
Nsg11
I4
sg12
I3
sg13
V0.4
p1948
sg15
Nsg16
I350
sg17
VLiam Dawson
p1949
sg19
g20
sg21
Nsg23
g137
sg25
I1
sg26
VEngland
p1950
sg28
VENG
p1951
sg30
VBowler
p1952
sg32
VAllrounder
p1953
sg34
I2
sg35
I4266
sg36
I1
sa(dp1954
g2
I206
sg3
Nsg5
Nsg7
Nsg9
Nsg11
I0
sg12
I3
sg13
V0.3
p1955
sg15
Nsg16
I350
sg17
VLiam Plunkett
p1956
sg19
g20
sg21
Nsg23
g78
sg25
I1
sg26
VEngland
p1957
sg28
VENG
p1958
sg30
VBowler
p1959
sg32
g20
sg34
I2
sg35
I3732
sg36
I1
sa(dp1960
g2
I232
sg3
Nsg5
Nsg7
Nsg9
Nsg11
I3
sg12
I3
sg13
V0.4
p1961
sg15
Nsg16
I350
sg17
VSam Billings
p1962
sg19
g20
sg21
Nsg23
g137
sg25
I1
sg26
VEngland
p1963
sg28
VENG
p1964
sg30
VBatsman
p1965
sg32
VWicketkeeper
p1966
sg34
I1
sg35
I58285
sg36
I1
sa(dp1967
g2
I198
sg3
Nsg5
Nsg7
Nsg9
Nsg11
I0
sg12
I3
sg13
g50
sg15
Nsg16
I350
sg17
VSteven Finn
p1968
sg19
VUnavailable due to calf strain
p1969
sg21
Nsg23
g128
sg25
I0
sg26
VEngland
p1970
sg28
VENG
p1971
sg30
VBowler
p1972
sg32
g20
sg34
I2
sg35
I4274
sg36
I1
sa(dp1973
g2
I240
sg3
Nsg5
Nsg7
Nsg9
Nsg11
I1
sg12
I19
sg13
g50
sg15
Nsg16
I350
sg17
VChristopher Carter
p1974
sg19
g20
sg21
Nsg23
g104
sg25
I0
sg26
VHong Kong
p1975
sg28
VHK
p1976
sg30
VWicketkeeper
p1977
sg32
VBatsman
p1978
sg34
I3
sg35
I65807
sg36
I1
sa(dp1979
g2
I236
sg3
Nsg5
Nsg7
Nsg9
Nsg11
I0
sg12
I19
sg13
g50
sg15
Nsg16
I350
sg17
VTanveer Ahmed
p1980
sg19
g20
sg21
Nsg23
g104
sg25
I0
sg26
VHong Kong
p1981
sg28
VHK
p1982
sg30
VBowler
p1983
sg32
g20
sg34
I2
sg35
I66144
sg36
I1
sa(dp1984
g2
I239
sg3
Nsg5
Nsg7
Nsg9
Nsg11
I0
sg12
I19
sg13
g20
sg15
Nsg16
I350
sg17
VWaqas Barkat
p1985
sg19
g20
sg21
Nsg23
g104
sg25
I0
sg26
VHong Kong
p1986
sg28
VHK
p1987
sg30
VBatsman
p1988
sg32
g20
sg34
I1
sg35
I4910
sg36
I1
sa(dp1989
g2
I243
sg3
Nsg5
Nsg7
Nsg9
Nsg11
I0
sg12
I19
sg13
g20
sg15
Nsg16
I350
sg17
VWaqas Khan
p1990
sg19
g20
sg21
Nsg23
g104
sg25
I0
sg26
VHong Kong
p1991
sg28
VHK
p1992
sg30
VBatsman
p1993
sg32
g20
sg34
I1
sg35
I65132
sg36
I1
sa(dp1994
g2
I197
sg3
Nsg5
Nsg7
Nsg9
Nsg11
I0
sg12
I4
sg13
V0.3
p1995
sg15
Nsg16
I350
sg17
VAjinkya Rahane
p1996
sg19
g20
sg21
Nsg23
g128
sg25
I1
sg26
VIndia
p1997
sg28
VIND
p1998
sg30
VBatsman
p1999
sg32
g20
sg34
I1
sg35
I3991
sg36
I1
sa(dp2000
g2
I207
sg3
Nsg5
Nsg7
Nsg9
Nsg11
I0
sg12
I4
sg13
V0.2
p2001
sg15
Nsg16
I350
sg17
VHarbhajan Singh
p2002
sg19
g20
sg21
Nsg23
g78
sg25
I1
sg26
VIndia
p2003
sg28
VIND
p2004
sg30
VBowler
p2005
sg32
g20
sg34
I2
sg35
I1367
sg36
I1
sa(dp2006
g2
I199
sg3
Nsg5
Nsg7
Nsg9
Nsg11
I0
sg12
I4
sg13
V0.2
p2007
sg15
Nsg16
I350
sg17
VMohammed Shami
p2008
sg19
g20
sg21
Nsg23
g128
sg25
I1
sg26
VIndia
p2009
sg28
VIND
p2010
sg30
VBowler
p2011
sg32
g20
sg34
I2
sg35
I28994
sg36
I1
sa(dp2012
g2
I219
sg3
Nsg5
Nsg7
Nsg9
Nsg11
I4
sg12
I4
sg13
V0.4
p2013
sg15
Nsg16
I350
sg17
VPawan Negi
p2014
sg19
g20
sg21
Nsg23
g137
sg25
I1
sg26
VIndia
p2015
sg28
VIND
p2016
sg30
VBowler
p2017
sg32
VAllrounder
p2018
sg34
I2
sg35
I57001
sg36
I1
sa(dp2019
g2
I213
sg3
Nsg5
Nsg7
Nsg9
Nsg11
I0
sg12
I13
sg13
g20
sg15
Nsg16
I350
sg17
VAndy Balbirnie
p2020
sg19
g20
sg21
Nsg23
g78
sg25
I0
sg26
VIreland
p2021
sg28
VIRE
p2022
sg30
VBatsman
p2023
sg32
g20
sg34
I1
sg35
I4454
sg36
I1
sa(dp2024
g2
I217
sg3
Nsg5
Nsg7
Nsg9
Nsg11
I0
sg12
I13
sg13
g20
sg15
Nsg16
I350
sg17
VStuart Poynter
p2025
sg19
g20
sg21
Nsg23
g137
sg25
I0
sg26
VIreland
p2026
sg28
VIRE
p2027
sg30
VBatsman
p2028
sg32
g20
sg34
I1
sg35
I4474
sg36
I1
sa(dp2029
g2
I216
sg3
Nsg5
Nsg7
Nsg9
Nsg11
I4
sg12
I13
sg13
g20
sg15
Nsg16
I350
sg17
VStuart Thompson
p2030
sg19
g20
sg21
Nsg23
g137
sg25
I0
sg26
VIreland
p2031
sg28
VIRE
p2032
sg30
VBowler
p2033
sg32
VAllrounder
p2034
sg34
I2
sg35
I61832
sg36
I1
sa(dp2035
g2
I242
sg3
Nsg5
Nsg7
Nsg9
Nsg11
I0
sg12
I15
sg13
g50
sg15
Nsg16
I350
sg17
VMax O'Dowd
p2036
sg19
g20
sg21
Nsg23
g104
sg25
I0
sg26
VNetherlands
p2037
sg28
VNED
p2038
sg30
VBatsman
p2039
sg32
g20
sg34
I1
sg35
I65585
sg36
I1
sa(dp2040
g2
I222
sg3
Nsg5
Nsg7
Nsg9
Nsg11
I0
sg12
I15
sg13
g20
sg15
Nsg16
I350
sg17
VMichael Rippon
p2041
sg19
g20
sg21
Nsg23
g137
sg25
I0
sg26
VNetherlands
p2042
sg28
VNED
p2043
sg30
VBowler
p2044
sg32
g20
sg34
I2
sg35
I56963
sg36
I1
sa(dp2045
g2
I195
sg3
Nsg5
Nsg7
Nsg9
Nsg11
I0
sg12
I15
sg13
g20
sg15
Nsg16
I350
sg17
VSikander Zulfiqar
p2046
sg19
g20
sg21
Nsg23
g24
sg25
I0
sg26
VNetherlands
p2047
sg28
VNED
p2048
sg30
VBowler
p2049
sg32
g20
sg34
I2
sg35
I66161
sg36
I1
sa(dp2050
g2
I244
sg3
Nsg5
Nsg7
Nsg9
Nsg11
I0
sg12
I15
sg13
g20
sg15
Nsg16
I350
sg17
VVivian Kingma
p2051
sg19
g20
sg21
Nsg23
g104
sg25
I0
sg26
VNetherlands
p2052
sg28
VNED
p2053
sg30
VBowler
p2054
sg32
g20
sg34
I2
sg35
I63937
sg36
I1
sa(dp2055
g2
I215
sg3
Nsg5
Nsg7
Nsg9
Nsg11
I0
sg12
I5
sg13
V0.1
p2056
sg15
Nsg16
I350
sg17
VHenry Nicholls
p2057
sg19
g20
sg21
Nsg23
g137
sg25
I1
sg26
VNew Zealand
p2058
sg28
VNZ
p2059
sg30
VBatsman
p2060
sg32
g20
sg34
I1
sg35
I57594
sg36
I1
sa(dp2061
g2
I196
sg3
Nsg5
Nsg7
Nsg9
Nsg11
I0
sg12
I5
sg13
V0.3
p2062
sg15
Nsg16
I350
sg17
VTim Southee
p2063
sg19
g20
sg21
Nsg23
g24
sg25
I1
sg26
VNew Zealand
p2064
sg28
VNZ
p2065
sg30
VBowler
p2066
sg32
g20
sg34
I2
sg35
I4235
sg36
I1
sa(dp2067
g2
I193
sg3
Nsg5
Nsg7
Nsg9
Nsg11
I0
sg12
I5
sg13
V0.3
p2068
sg15
Nsg16
I350
sg17
VTrent Boult
p2069
sg19
g20
sg21
Nsg23
V10
p2070
sg25
I1
sg26
VNew Zealand
p2071
sg28
VNZ
p2072
sg30
VBowler
p2073
sg32
g20
sg34
I2
sg35
I4338
sg36
I1
sa(dp2074
g2
I247
sg3
Nsg5
Nsg7
Nsg9
Nsg11
I0
sg12
I28
sg13
g20
sg15
Nsg16
I350
sg17
VAaqib Sulehri
p2075
sg19
g20
sg21
Nsg23
g104
sg25
I0
sg26
VOman
p2076
sg28
VOMN
p2077
sg30
VBatsman
p2078
sg32
g20
sg34
I1
sg35
I65813
sg36
I1
sa(dp2079
g2
I248
sg3
Nsg5
Nsg7
Nsg9
Nsg11
I0
sg12
I28
sg13
g20
sg15
Nsg16
I350
sg17
VArun Poulose
p2080
sg19
g20
sg21
Nsg23
g104
sg25
I0
sg26
VOman
p2081
sg28
VOMN
p2082
sg30
VBatsman
p2083
sg32
g20
sg34
I1
sg35
I53767
sg36
I1
sa(dp2084
g2
I250
sg3
Nsg5
Nsg7
Nsg9
Nsg11
I0
sg12
I28
sg13
g20
sg15
Nsg16
I350
sg17
VMohammad Nadeem
p2085
sg19
g20
sg21
Nsg23
g104
sg25
I0
sg26
VOman
p2086
sg28
VOMN
p2087
sg30
VBowler
p2088
sg32
g20
sg34
I2
sg35
I26709
sg36
I1
sa(dp2089
g2
I245
sg3
Nsg5
Nsg7
Nsg9
Nsg11
I0
sg12
I28
sg13
g20
sg15
Nsg16
I350
sg17
VRajeshkumar Ranpura
p2090
sg19
g20
sg21
Nsg23
g104
sg25
I0
sg26
VOman
p2091
sg28
VOMN
p2092
sg30
VBowler
p2093
sg32
g20
sg34
I2
sg35
I62431
sg36
I1
sa(dp2094
g2
I246
sg3
Nsg5
Nsg7
Nsg9
Nsg11
I0
sg12
I28
sg13
g20
sg15
Nsg16
I350
sg17
VSufyan Mehmood
p2095
sg19
g20
sg21
Nsg23
g104
sg25
I0
sg26
VOman
p2096
sg28
VOMN
p2097
sg30
VBowler
p2098
sg32
g20
sg34
I2
sg35
I61818
sg36
I1
sa(dp2099
g2
I249
sg3
Nsg5
Nsg7
Nsg9
Nsg11
I0
sg12
I28
sg13
g20
sg15
Nsg16
I350
sg17
VVaibhav Wategaonkar
p2100
sg19
g20
sg21
Nsg23
g104
sg25
I0
sg26
VOman
p2101
sg28
VOMN
p2102
sg30
VBatsman
p2103
sg32
g20
sg34
I1
sg35
I4101
sg36
I1
sa(dp2104
g2
I241
sg3
Nsg5
Nsg7
Nsg9
Nsg11
I0
sg12
I28
sg13
g20
sg15
Nsg16
I350
sg17
VYousuf Mahmood
p2105
sg19
g20
sg21
Nsg23
g104
sg25
I0
sg26
VOman
p2106
sg28
VOMN
p2107
sg30
VBowler
p2108
sg32
g20
sg34
I2
sg35
I65596
sg36
I1
sa(dp2109
g2
I237
sg3
Nsg5
Nsg7
Nsg9
Nsg11
I0
sg12
I28
sg13
g20
sg15
Nsg16
I350
sg17
VZeeshan Siddiqui
p2110
sg19
g20
sg21
Nsg23
g104
sg25
I0
sg26
VOman
p2111
sg28
VOMN
p2112
sg30
VBatsman
p2113
sg32
g20
sg34
I1
sg35
I4078
sg36
I1
sa(dp2114
g2
I211
sg3
Nsg5
Nsg7
Nsg9
Nsg11
I0
sg12
I6
sg13
V0.2
p2115
sg15
Nsg16
I350
sg17
VAnwar Ali
p2116
sg19
g20
sg21
Nsg23
g78
sg25
I1
sg26
VPakistan
p2117
sg28
VPAK
p2118
sg30
VBowler
p2119
sg32
g20
sg34
I2
sg35
I4987
sg36
I1
sa(dp2120
g2
I230
sg3
Nsg5
Nsg7
Nsg9
Nsg11
I0
sg12
I6
sg13
g20
sg15
Nsg16
I350
sg17
VKhurram Manzoor
p2121
sg19
g20
sg21
Nsg23
g137
sg25
I0
sg26
VPakistan
p2122
sg28
VPAK
p2123
sg30
VBatsman
p2124
sg32
g20
sg34
I1
sg35
I4227
sg36
I1
sa(dp2125
g2
I231
sg3
Nsg5
Nsg7
Nsg9
Nsg11
I0
sg12
I6
sg13
V0.2
p2126
sg15
Nsg16
I350
sg17
VMohammad Nawaz
p2127
sg19
g20
sg21
Nsg23
g137
sg25
I1
sg26
VPakistan
p2128
sg28
VPAK
p2129
sg30
VBowler
p2130
sg32
g20
sg34
I2
sg35
I57935
sg36
I1
sa(dp2131
g2
I221
sg3
Nsg5
Nsg7
Nsg9
Nsg11
I0
sg12
I7
sg13
V0.2
p2132
sg15
Nsg16
I350
sg17
VAaron Phangiso
p2133
sg19
g20
sg21
Nsg23
g137
sg25
I1
sg26
VSouth Africa
p2134
sg28
VSA
p2135
sg30
VBowler
p2136
sg32
g20
sg34
I2
sg35
I5304
sg36
I1
sa(dp2137
g2
I210
sg3
Nsg5
Nsg7
Nsg9
Nsg11
I4
sg12
I7
sg13
V0.2
p2138
sg15
Nsg16
I350
sg17
VFarhaan Behardien
p2139
sg19
g20
sg21
Nsg23
g78
sg25
I1
sg26
VSouth Africa
p2140
sg28
VSA
p2141
sg30
VBatsman
p2142
sg32
VAllrounder
p2143
sg34
I1
sg35
I33963
sg36
I1
sa(dp2144
g2
I214
sg3
Nsg5
Nsg7
Nsg9
Nsg11
I0
sg12
I7
sg13
V0.2
p2145
sg15
Nsg16
I350
sg17
VRilee Rossouw
p2146
sg19
g20
sg21
Nsg23
g78
sg25
I1
sg26
VSouth Africa
p2147
sg28
VSA
p2148
sg30
VBatsman
p2149
sg32
g20
sg34
I1
sg35
I4357
sg36
I1
sa(dp2150
g2
I251
sg3
Nsg5
Nsg7
Nsg9
Nsg11
I0
sg12
I8
sg13
V1.1
p2151
sg15
Nsg16
I350
sg17
VDasun Shanaka
p2152
sg19
g20
sg21
Nsg23
g104
sg25
I1
sg26
VSri Lanka
p2153
sg28
VSL
p2154
sg30
VAllrounder
p2155
sg32
g20
sg34
I4
sg35
I59067
sg36
I1
sa(dp2156
g2
I194
sg3
Nsg5
Nsg7
Nsg9
Nsg11
I0
sg12
I8
sg13
V0.1
p2157
sg15
Nsg16
I350
sg17
VLasith Malinga
p2158
sg19
g20
sg21
Nsg23
V10
p2159
sg25
I0
sg26
VSri Lanka
p2160
sg28
VSL
p2161
sg30
VBowler
p2162
sg32
g20
sg34
I2
sg35
I3571
sg36
I1
sa(dp2163
g2
I235
sg3
Nsg5
Nsg7
Nsg9
Nsg11
I1
sg12
I8
sg13
g20
sg15
Nsg16
I350
sg17
VNiroshan Dickwella
p2164
sg19
g20
sg21
Nsg23
g137
sg25
I0
sg26
VSri Lanka
p2165
sg28
VSL
p2166
sg30
VWicketkeeper
p2167
sg32
VBatsman
p2168
sg34
I3
sg35
I57454
sg36
I1
sa(dp2169
g2
I205
sg3
Nsg5
Nsg7
Nsg9
Nsg11
I0
sg12
I8
sg13
V0.1
p2170
sg15
Nsg16
I350
sg17
VSachithra Senanayake
p2171
sg19
g20
sg21
Nsg23
g128
sg25
I1
sg26
VSri Lanka
p2172
sg28
VSL
p2173
sg30
VBowler
p2174
sg32
g20
sg34
I2
sg35
I20398
sg36
I1
sa(dp2175
g2
I200
sg3
Nsg5
Nsg7
Nsg9
Nsg11
I0
sg12
I8
sg13
V0.1
p2176
sg15
Nsg16
I350
sg17
VSuranga Lakmal
p2177
sg19
g20
sg21
Nsg23
g128
sg25
I1
sg26
VSri Lanka
p2178
sg28
VSL
p2179
sg30
VBowler
p2180
sg32
g20
sg34
I2
sg35
I5388
sg36
I1
sa(dp2181
g2
I225
sg3
Nsg5
Nsg7
Nsg9
Nsg11
I0
sg12
I9
sg13
V0.1
p2182
sg15
Nsg16
I350
sg17
VAshley Nurse
p2183
sg19
g20
sg21
Nsg23
g137
sg25
I1
sg26
VWest Indies
p2184
sg28
VWI
p2185
sg30
VBowler
p2186
sg32
g20
sg34
I2
sg35
I43080
sg36
I1
sa(dp2187
g2
I238
sg3
Nsg5
Nsg7
Nsg9
Nsg11
I0
sg12
I9
sg13
V0.6
p2188
sg15
Nsg16
I350
sg17
VEvin Lewis
p2189
sg19
g20
sg21
Nsg23
g104
sg25
I1
sg26
VWest Indies
p2190
sg28
VWI
p2191
sg30
VBatsman
p2192
sg32
g20
sg34
I1
sg35
I59314
sg36
I1
sa(dp2193
g2
I202
sg3
Nsg5
Nsg7
Nsg9
Nsg11
I4
sg12
I9
sg13
V0.1
p2194
sg15
Nsg16
I350
sg17
VJason Holder
p2195
sg19
g20
sg21
Nsg23
g128
sg25
I1
sg26
VWest Indies
p2196
sg28
VWI
p2197
sg30
VBowler
p2198
sg32
VAllrounder
p2199
sg34
I2
sg35
I10232
sg36
I1
sa(dp2200
g2
I204
sg3
Nsg5
Nsg7
Nsg9
Nsg11
I0
sg12
I9
sg13
g50
sg15
Nsg16
I350
sg17
VLendl Simmons
p2201
sg19
VUnavailable due to a back injury.
p2202
sg21
Nsg23
g128
sg25
I0
sg26
VWest Indies
p2203
sg28
VWI
p2204
sg30
VBatsman
p2205
sg32
g20
sg34
I1
sg35
I3861
sg36
I1
sa(dp2206
g2
I208
sg3
Nsg5
Nsg7
Nsg9
Nsg11
I0
sg12
I10
sg13
g50
sg15
Nsg16
I350
sg17
VChamu Chibhabha
p2207
sg19
g20
sg21
Nsg23
g78
sg25
I0
sg26
VZimbabwe
p2208
sg28
VZIM
p2209
sg30
VAllrounder
p2210
sg32
g20
sg34
I4
sg35
I3713
sg36
I1
sa(dp2211
g2
I201
sg3
Nsg5
Nsg7
Nsg9
Nsg11
I0
sg12
I10
sg13
g20
sg15
Nsg16
I350
sg17
VGraeme Cremer
p2212
sg19
g20
sg21
Nsg23
g128
sg25
I0
sg26
VZimbabwe
p2213
sg28
VZIM
p2214
sg30
VBowler
p2215
sg32
g20
sg34
I2
sg35
I3656
sg36
I1
sa(dp2216
g2
I209
sg3
Nsg5
Nsg7
Nsg9
Nsg11
I0
sg12
I10
sg13
g20
sg15
Nsg16
I350
sg17
VLuke Jongwe
p2217
sg19
g20
sg21
Nsg23
g78
sg25
I0
sg26
VZimbabwe
p2218
sg28
VZIM
p2219
sg30
VBowler
p2220
sg32
g20
sg34
I2
sg35
I57826
sg36
I1
sa(dp2221
g2
I218
sg3
Nsg5
Nsg7
Nsg9
Nsg11
I0
sg12
I10
sg13
g20
sg15
Nsg16
I350
sg17
VNeville Madziva
p2222
sg19
g20
sg21
Nsg23
g137
sg25
I0
sg26
VZimbabwe
p2223
sg28
VZIM
p2224
sg30
VBowler
p2225
sg32
g20
sg34
I2
sg35
I57115
sg36
I1
sa(dp2226
g2
I233
sg3
Nsg5
Nsg7
Nsg9
Nsg11
I3
sg12
I10
sg13
g20
sg15
Nsg16
I350
sg17
VPeter Moor
p2227
sg19
g20
sg21
Nsg23
g137
sg25
I0
sg26
VZimbabwe
p2228
sg28
VZIM
p2229
sg30
VBatsman
p2230
sg32
VWicketkeeper
p2231
sg34
I1
sg35
I4310
sg36
I1
sa(dp2232
g2
I220
sg3
Nsg5
Nsg7
Nsg9
Nsg11
I0
sg12
I10
sg13
g20
sg15
Nsg16
I350
sg17
VTawanda Mupariwa
p2233
sg19
g20
sg21
Nsg23
g137
sg25
I0
sg26
VZimbabwe
p2234
sg28
VZIM
p2235
sg30
VBowler
p2236
sg32
g20
sg34
I2
sg35
I3560
sg36
I1
sa(dp2237
g2
I224
sg3
Nsg5
Nsg7
Nsg9
Nsg11
I0
sg12
I10
sg13
g20
sg15
Nsg16
I350
sg17
VTendai Chisoro
p2238
sg19
g20
sg21
Nsg23
g137
sg25
I0
sg26
VZimbabwe
p2239
sg28
VZIM
p2240
sg30
VBowler
p2241
sg32
g20
sg34
I2
sg35
I50807
sg36
I1
sa.